(dp1
S'layout'
p2
(ilayout
Layout
p3
(dp4
S'capsules'
p5
(lp6
(I6
I5
tp7
a(I25
I10
tp8
asS'numGhosts'
p9
I4
sS'food'
p10
(igame
Grid
p11
(dp12
S'CELLS_PER_INT'
p13
I30
sS'width'
p14
I32
sS'data'
p15
(lp16
(lp17
I00
aI00
aI00
aI00
aI00
aI00
aI00
aI00
aI00
aI00
aI00
aI00
aI00
aI00
aI00
aI00
aa(lp18
I00
aI00
aI00
aI00
aI00
aI00
aI00
aI00
aI00
aI00
aI00
aI00
aI00
aI00
aI00
aI00
aa(lp19
I00
aI00
aI00
aI00
aI00
aI00
aI00
aI00
aI00
aI00
aI00
aI00
aI00
aI00
aI00
aI00
aa(lp20
I00
aI01
aI01
aI00
aI00
aI00
aI00
aI00
aI01
aI00
aI00
aI00
aI00
aI00
aI00
aI00
aa(lp21
I00
aI00
aI00
aI00
aI00
aI00
aI00
aI00
aI00
aI00
aI00
aI00
aI00
aI00
aI00
aI00
aa(lp22
I00
aI01
aI00
aI00
aI00
aI00
aI00
aI00
aI00
aI00
aI00
aI00
aI01
aI00
aI01
aI00
aa(lp23
I00
aI00
aI00
aI00
aI00
aI00
aI00
aI00
aI00
aI00
aI00
aI00
aI00
aI00
aI00
aI00
aa(lp24
I00
aI00
aI00
aI01
aI00
aI00
aI00
aI00
aI01
aI01
aI00
aI00
aI00
aI00
aI00
aI00
aa(lp25
I00
aI00
aI00
aI01
aI00
aI00
aI00
aI00
aI00
aI01
aI00
aI00
aI00
aI00
aI01
aI00
aa(lp26
I00
aI00
aI00
aI00
aI00
aI01
aI00
aI00
aI00
aI00
aI00
aI01
aI00
aI00
aI00
aI00
aa(lp27
I00
aI00
aI00
aI01
aI00
aI00
aI00
aI01
aI00
aI01
aI00
aI01
aI00
aI00
aI01
aI00
aa(lp28
I00
aI00
aI00
aI00
aI00
aI00
aI00
aI00
aI00
aI00
aI00
aI00
aI00
aI00
aI00
aI00
aa(lp29
I00
aI00
aI00
aI00
aI00
aI00
aI00
aI00
aI00
aI00
aI00
aI00
aI00
aI00
aI00
aI00
aa(lp30
I00
aI00
aI00
aI00
aI00
aI00
aI00
aI00
aI00
aI00
aI00
aI00
aI00
aI00
aI00
aI00
aa(lp31
I00
aI00
aI00
aI00
aI00
aI00
aI00
aI00
aI00
aI01
aI00
aI00
aI00
aI00
aI00
aI00
aa(lp32
I00
aI00
aI00
aI00
aI00
aI00
aI00
aI00
aI00
aI00
aI00
aI00
aI00
aI00
aI00
aI00
aa(lp33
I00
aI00
aI00
aI00
aI00
aI00
aI00
aI00
aI00
aI00
aI00
aI00
aI00
aI00
aI00
aI00
aa(lp34
I00
aI00
aI00
aI00
aI00
aI00
aI01
aI00
aI00
aI00
aI00
aI00
aI00
aI00
aI00
aI00
aa(lp35
I00
aI00
aI00
aI00
aI00
aI00
aI00
aI00
aI00
aI00
aI00
aI00
aI00
aI00
aI00
aI00
aa(lp36
I00
aI00
aI00
aI00
aI00
aI00
aI00
aI00
aI00
aI00
aI00
aI00
aI00
aI00
aI00
aI00
aa(lp37
I00
aI00
aI00
aI00
aI00
aI00
aI00
aI00
aI00
aI00
aI00
aI00
aI00
aI00
aI00
aI00
aa(lp38
I00
aI01
aI00
aI00
aI01
aI00
aI01
aI00
aI01
aI00
aI00
aI00
aI01
aI00
aI00
aI00
aa(lp39
I00
aI00
aI00
aI00
aI01
aI00
aI00
aI00
aI00
aI00
aI01
aI00
aI00
aI00
aI00
aI00
aa(lp40
I00
aI01
aI00
aI00
aI00
aI00
aI01
aI00
aI00
aI00
aI00
aI00
aI01
aI00
aI00
aI00
aa(lp41
I00
aI00
aI00
aI00
aI00
aI00
aI01
aI01
aI00
aI00
aI00
aI00
aI01
aI00
aI00
aI00
aa(lp42
I00
aI00
aI00
aI00
aI00
aI00
aI00
aI00
aI00
aI00
aI00
aI00
aI00
aI00
aI00
aI00
aa(lp43
I00
aI01
aI00
aI01
aI00
aI00
aI00
aI00
aI00
aI00
aI00
aI00
aI00
aI00
aI01
aI00
aa(lp44
I00
aI00
aI00
aI00
aI00
aI00
aI00
aI00
aI00
aI00
aI00
aI00
aI00
aI00
aI00
aI00
aa(lp45
I00
aI00
aI00
aI00
aI00
aI00
aI00
aI01
aI00
aI00
aI00
aI00
aI00
aI01
aI01
aI00
aa(lp46
I00
aI00
aI00
aI00
aI00
aI00
aI00
aI00
aI00
aI00
aI00
aI00
aI00
aI00
aI00
aI00
aa(lp47
I00
aI00
aI00
aI00
aI00
aI00
aI00
aI00
aI00
aI00
aI00
aI00
aI00
aI00
aI00
aI00
aa(lp48
I00
aI00
aI00
aI00
aI00
aI00
aI00
aI00
aI00
aI00
aI00
aI00
aI00
aI00
aI00
aI00
aasS'height'
p49
I16
sbsS'agentPositions'
p50
(lp51
(I00
(I1
I2
tp52
tp53
a(I00
(I30
I13
tp54
tp55
a(I00
(I1
I1
tp56
tp57
a(I00
(I30
I14
tp58
tp59
asg49
I16
sg14
I32
sS'walls'
p60
(igame
Grid
p61
(dp62
g13
I30
sg14
I32
sg15
(lp63
(lp64
I01
aI01
aI01
aI01
aI01
aI01
aI01
aI01
aI01
aI01
aI01
aI01
aI01
aI01
aI01
aI01
aa(lp65
I01
aI00
aI00
aI00
aI00
aI00
aI00
aI00
aI00
aI00
aI00
aI00
aI00
aI00
aI00
aI01
aa(lp66
I01
aI01
aI01
aI01
aI01
aI01
aI01
aI01
aI01
aI01
aI01
aI01
aI01
aI01
aI00
aI01
aa(lp67
I01
aI00
aI00
aI00
aI00
aI00
aI00
aI01
aI00
aI01
aI00
aI00
aI00
aI00
aI00
aI01
aa(lp68
I01
aI01
aI01
aI01
aI01
aI01
aI00
aI00
aI00
aI00
aI00
aI01
aI01
aI01
aI01
aI01
aa(lp69
I01
aI00
aI00
aI00
aI00
aI00
aI00
aI00
aI01
aI01
aI00
aI01
aI00
aI01
aI00
aI01
aa(lp70
I01
aI01
aI00
aI01
aI01
aI00
aI01
aI01
aI01
aI00
aI00
aI00
aI00
aI00
aI00
aI01
aa(lp71
I01
aI00
aI00
aI00
aI01
aI00
aI00
aI01
aI00
aI00
aI01
aI01
aI01
aI00
aI01
aI01
aa(lp72
I01
aI00
aI01
aI00
aI01
aI01
aI00
aI01
aI01
aI00
aI01
aI00
aI00
aI00
aI00
aI01
aa(lp73
I01
aI00
aI01
aI01
aI01
aI00
aI00
aI01
aI01
aI01
aI01
aI00
aI01
aI00
aI01
aI01
aa(lp74
I01
aI00
aI01
aI00
aI01
aI01
aI00
aI00
aI01
aI00
aI01
aI00
aI01
aI00
aI00
aI01
aa(lp75
I01
aI00
aI00
aI00
aI00
aI01
aI00
aI01
aI01
aI00
aI01
aI01
aI01
aI00
aI01
aI01
aa(lp76
I01
aI01
aI00
aI01
aI00
aI01
aI00
aI00
aI00
aI00
aI00
aI00
aI00
aI00
aI00
aI01
aa(lp77
I01
aI00
aI00
aI01
aI00
aI00
aI00
aI00
aI00
aI01
aI01
aI01
aI00
aI01
aI00
aI01
aa(lp78
I01
aI00
aI01
aI01
aI01
aI00
aI01
aI00
aI00
aI00
aI01
aI00
aI00
aI01
aI00
aI01
aa(lp79
I01
aI00
aI00
aI01
aI00
aI00
aI01
aI00
aI00
aI01
aI01
aI00
aI00
aI00
aI00
aI01
aa(lp80
I01
aI00
aI00
aI00
aI00
aI01
aI01
aI00
aI00
aI01
aI00
aI00
aI01
aI00
aI00
aI01
aa(lp81
I01
aI00
aI01
aI00
aI00
aI01
aI00
aI00
aI00
aI01
aI00
aI01
aI01
aI01
aI00
aI01
aa(lp82
I01
aI00
aI01
aI00
aI01
aI01
aI01
aI00
aI00
aI00
aI00
aI00
aI01
aI00
aI00
aI01
aa(lp83
I01
aI00
aI00
aI00
aI00
aI00
aI00
aI00
aI00
aI00
aI01
aI00
aI01
aI00
aI01
aI01
aa(lp84
I01
aI01
aI00
aI01
aI01
aI01
aI00
aI01
aI01
aI00
aI01
aI00
aI00
aI00
aI00
aI01
aa(lp85
I01
aI00
aI00
aI01
aI00
aI01
aI00
aI01
aI00
aI00
aI01
aI01
aI00
aI01
aI00
aI01
aa(lp86
I01
aI01
aI00
aI01
aI00
aI01
aI01
aI01
aI01
aI00
aI00
aI01
aI01
aI01
aI00
aI01
aa(lp87
I01
aI00
aI00
aI00
aI00
aI01
aI00
aI01
aI01
aI00
aI01
aI01
aI00
aI01
aI00
aI01
aa(lp88
I01
aI01
aI00
aI01
aI01
aI01
aI00
aI00
aI01
aI00
aI00
aI01
aI00
aI00
aI00
aI01
aa(lp89
I01
aI00
aI00
aI00
aI00
aI00
aI00
aI01
aI01
aI01
aI00
aI01
aI01
aI00
aI01
aI01
aa(lp90
I01
aI00
aI01
aI00
aI01
aI00
aI01
aI01
aI00
aI00
aI00
aI00
aI00
aI00
aI00
aI01
aa(lp91
I01
aI01
aI01
aI01
aI01
aI00
aI00
aI00
aI00
aI00
aI01
aI01
aI01
aI01
aI01
aI01
aa(lp92
I01
aI00
aI00
aI00
aI00
aI00
aI01
aI00
aI01
aI00
aI00
aI00
aI00
aI00
aI00
aI01
aa(lp93
I01
aI00
aI01
aI01
aI01
aI01
aI01
aI01
aI01
aI01
aI01
aI01
aI01
aI01
aI01
aI01
aa(lp94
I01
aI00
aI00
aI00
aI00
aI00
aI00
aI00
aI00
aI00
aI00
aI00
aI00
aI00
aI00
aI01
aa(lp95
I01
aI01
aI01
aI01
aI01
aI01
aI01
aI01
aI01
aI01
aI01
aI01
aI01
aI01
aI01
aI01
aasg49
I16
sbsS'layoutText'
p96
(lp97
S'%%%%%%%%%%%%%%%%%%%%%%%%%%%%%%%%'
p98
aS'%   %. %.%.%       %     %.%.%4%'
p99
aS'% % %%       %%  %   %%%   %.%2%'
p100
aS'% % %. % %%%    %%%% .%..% % % %'
p101
aS'% % %% % ..% %   %   %%%%% % % %'
p102
aS'% %    %%%%% %%%   %%%.% o % % %'
p103
aS'% %% % ..%.  %.%%%       %   % %'
p104
aS'% %. %%.%%%%        %.%%%%  %% %'
p105
aS'% %%  %%%%.%        %%%%.%% .% %'
p106
aS'% %   %       %%%.%  .%.. % %% %'
p107
aS'% % % o %.%%%   %%% %%%%%    % %'
p108
aS'% % % %%%%%   %   % %.. % %% % %'
p109
aS'% % % %..%. %%%%    %%% % .% % %'
p110
aS'%1%.%   %%%   %  %%       %% % %'
p111
aS'%3%.%.%     %       %.%.% .%   %'
p112
aS'%%%%%%%%%%%%%%%%%%%%%%%%%%%%%%%%'
p113
asbsS'blueTeamName'
p114
S'OverworkedImmigrants'
p115
sS'actions'
p116
(lp117
(I0
S'North'
p118
tp119
a(I1
S'South'
p120
tp121
a(I2
g118
tp122
a(I3
g120
tp123
a(I0
g118
tp124
a(I1
g120
tp125
a(I2
g118
tp126
a(I3
g120
tp127
a(I0
g118
tp128
a(I1
g120
tp129
a(I2
g118
tp130
a(I3
g120
tp131
a(I0
g118
tp132
a(I1
g120
tp133
a(I2
g118
tp134
a(I3
g120
tp135
a(I0
g118
tp136
a(I1
g120
tp137
a(I2
g118
tp138
a(I3
g120
tp139
a(I0
g118
tp140
a(I1
g120
tp141
a(I2
g118
tp142
a(I3
g120
tp143
a(I0
g118
tp144
a(I1
g120
tp145
a(I2
g118
tp146
a(I3
g120
tp147
a(I0
g118
tp148
a(I1
g120
tp149
a(I2
g118
tp150
a(I3
g120
tp151
a(I0
g118
tp152
a(I1
g120
tp153
a(I2
g118
tp154
a(I3
g120
tp155
a(I0
g118
tp156
a(I1
g120
tp157
a(I2
g118
tp158
a(I3
g120
tp159
a(I0
g118
tp160
a(I1
g120
tp161
a(I2
g118
tp162
a(I3
g120
tp163
a(I0
g118
tp164
a(I1
g120
tp165
a(I2
g118
tp166
a(I3
g120
tp167
a(I0
S'East'
p168
tp169
a(I1
S'West'
p170
tp171
a(I2
g118
tp172
a(I3
g120
tp173
a(I0
g168
tp174
a(I1
g170
tp175
a(I2
g168
tp176
a(I3
g170
tp177
a(I0
g120
tp178
a(I1
g118
tp179
a(I2
g168
tp180
a(I3
g170
tp181
a(I0
g120
tp182
a(I1
g118
tp183
a(I2
g120
tp184
a(I3
g118
tp185
a(I0
g120
tp186
a(I1
g118
tp187
a(I2
g120
tp188
a(I3
g118
tp189
a(I0
g120
tp190
a(I1
g118
tp191
a(I2
g120
tp192
a(I3
g118
tp193
a(I0
g168
tp194
a(I1
g170
tp195
a(I2
g120
tp196
a(I3
g118
tp197
a(I0
g120
tp198
a(I1
g170
tp199
a(I2
g168
tp200
a(I3
g170
tp201
a(I0
g120
tp202
a(I1
g170
tp203
a(I2
g120
tp204
a(I3
g118
tp205
a(I0
g120
tp206
a(I1
S'Stop'
p207
tp208
a(I2
g120
tp209
a(I3
g118
tp210
a(I0
g168
tp211
a(I1
g207
tp212
a(I2
g120
tp213
a(I3
g118
tp214
a(I0
g120
tp215
a(I1
g207
tp216
a(I2
g168
tp217
a(I3
g118
tp218
a(I0
g120
tp219
a(I1
g207
tp220
a(I2
g120
tp221
a(I3
g170
tp222
a(I0
g168
tp223
a(I1
g207
tp224
a(I2
g120
tp225
a(I3
g118
tp226
a(I0
g168
tp227
a(I1
g207
tp228
a(I2
g168
tp229
a(I3
g170
tp230
a(I0
g118
tp231
a(I1
g207
tp232
a(I2
g168
tp233
a(I3
g170
tp234
a(I0
g168
tp235
a(I1
g207
tp236
a(I2
g118
tp237
a(I3
g120
tp238
a(I0
g168
tp239
a(I1
g207
tp240
a(I2
g168
tp241
a(I3
g170
tp242
a(I0
g168
tp243
a(I1
g207
tp244
a(I2
g168
tp245
a(I3
g170
tp246
a(I0
g168
tp247
a(I1
g207
tp248
a(I2
g168
tp249
a(I3
g170
tp250
a(I0
g168
tp251
a(I1
g207
tp252
a(I2
g168
tp253
a(I3
g170
tp254
a(I0
g168
tp255
a(I1
g207
tp256
a(I2
g168
tp257
a(I3
g170
tp258
a(I0
g118
tp259
a(I1
g207
tp260
a(I2
g168
tp261
a(I3
g170
tp262
a(I0
g168
tp263
a(I1
g207
tp264
a(I2
g120
tp265
a(I3
g120
tp266
a(I0
g168
tp267
a(I1
g207
tp268
a(I2
g168
tp269
a(I3
g170
tp270
a(I0
g207
tp271
a(I1
g207
tp272
a(I2
g168
tp273
a(I3
g170
tp274
a(I0
g170
tp275
a(I1
g207
tp276
a(I2
g120
tp277
a(I3
g170
tp278
a(I0
g168
tp279
a(I1
g207
tp280
a(I2
g168
tp281
a(I3
g170
tp282
a(I0
g118
tp283
a(I1
g207
tp284
a(I2
g168
tp285
a(I3
g118
tp286
a(I0
g170
tp287
a(I1
g207
tp288
a(I2
g120
tp289
a(I3
g207
tp290
a(I0
g118
tp291
a(I1
g207
tp292
a(I2
g168
tp293
a(I3
g120
tp294
a(I0
g120
tp295
a(I1
g207
tp296
a(I2
g168
tp297
a(I3
g120
tp298
a(I0
g168
tp299
a(I1
g207
tp300
a(I2
g120
tp301
a(I3
g120
tp302
a(I0
g168
tp303
a(I1
g207
tp304
a(I2
g168
tp305
a(I3
g120
tp306
a(I0
g168
tp307
a(I1
g207
tp308
a(I2
g168
tp309
a(I3
g120
tp310
a(I0
g120
tp311
a(I1
g207
tp312
a(I2
g120
tp313
a(I3
g120
tp314
a(I0
g120
tp315
a(I1
g207
tp316
a(I2
g118
tp317
a(I3
g120
tp318
a(I0
g118
tp319
a(I1
g207
tp320
a(I2
g168
tp321
a(I3
g120
tp322
a(I0
g168
tp323
a(I1
g207
tp324
a(I2
g168
tp325
a(I3
g120
tp326
a(I0
g168
tp327
a(I1
g120
tp328
a(I2
g120
tp329
a(I3
g120
tp330
a(I0
g120
tp331
a(I1
g120
tp332
a(I2
g118
tp333
a(I3
g120
tp334
a(I0
g168
tp335
a(I1
g120
tp336
a(I2
g118
tp337
a(I3
g120
tp338
a(I0
g168
tp339
a(I1
g170
tp340
a(I2
g118
tp341
a(I3
g120
tp342
a(I0
g170
tp343
a(I1
g170
tp344
a(I2
g170
tp345
a(I3
g170
tp346
a(I0
g170
tp347
a(I1
g118
tp348
a(I2
g170
tp349
a(I3
g170
tp350
a(I0
g118
tp351
a(I1
g118
tp352
a(I2
g207
tp353
a(I3
g118
tp354
a(I0
g118
tp355
a(I1
g170
tp356
a(I2
g168
tp357
a(I3
g118
tp358
a(I0
g118
tp359
a(I1
g168
tp360
a(I2
g118
tp361
a(I3
g118
tp362
a(I0
g168
tp363
a(I1
g120
tp364
a(I2
g118
tp365
a(I3
g118
tp366
a(I0
g168
tp367
a(I1
g120
tp368
a(I2
g118
tp369
a(I3
g170
tp370
a(I0
g120
tp371
a(I1
g168
tp372
a(I2
g118
tp373
a(I3
g170
tp374
a(I0
g118
tp375
a(I1
g168
tp376
a(I2
g118
tp377
a(I3
g170
tp378
a(I0
g168
tp379
a(I1
g118
tp380
a(I2
g118
tp381
a(I3
g120
tp382
a(I0
g118
tp383
a(I1
g118
tp384
a(I2
g118
tp385
a(I3
g120
tp386
a(I0
g120
tp387
a(I1
g118
tp388
a(I2
g118
tp389
a(I3
g120
tp390
a(I0
g168
tp391
a(I1
g207
tp392
a(I2
g118
tp393
a(I3
g170
tp394
a(I0
g168
tp395
a(I1
g168
tp396
a(I2
g118
tp397
a(I3
g170
tp398
a(I0
g118
tp399
a(I1
g170
tp400
a(I2
g118
tp401
a(I3
g170
tp402
a(I0
g168
tp403
a(I1
g120
tp404
a(I2
g118
tp405
a(I3
g170
tp406
a(I0
g168
tp407
a(I1
g120
tp408
a(I2
g118
tp409
a(I3
g170
tp410
a(I0
g118
tp411
a(I1
g120
tp412
a(I2
g168
tp413
a(I3
g170
tp414
a(I0
g118
tp415
a(I1
g170
tp416
a(I2
g168
tp417
a(I3
g120
tp418
a(I0
g118
tp419
a(I1
g170
tp420
a(I2
g120
tp421
a(I3
g170
tp422
a(I0
g118
tp423
a(I1
g118
tp424
a(I2
g120
tp425
a(I3
g170
tp426
a(I0
g120
tp427
a(I1
g118
tp428
a(I2
g120
tp429
a(I3
g170
tp430
a(I0
g170
tp431
a(I1
g170
tp432
a(I2
g120
tp433
a(I3
g170
tp434
a(I0
g170
tp435
a(I1
g170
tp436
a(I2
g168
tp437
a(I3
g170
tp438
a(I0
g120
tp439
a(I1
g168
tp440
a(I2
g120
tp441
a(I3
g170
tp442
a(I0
g170
tp443
a(I1
g168
tp444
a(I2
g120
tp445
a(I3
g118
tp446
a(I0
g168
tp447
a(I1
g120
tp448
a(I2
g120
tp449
a(I3
g170
tp450
a(I0
g118
tp451
a(I1
g120
tp452
a(I2
g120
tp453
a(I3
g170
tp454
a(I0
g118
tp455
a(I1
g170
tp456
a(I2
g168
tp457
a(I3
g118
tp458
a(I0
g170
tp459
a(I1
g170
tp460
a(I2
g120
tp461
a(I3
g170
tp462
a(I0
g170
tp463
a(I1
g120
tp464
a(I2
g168
tp465
a(I3
g168
tp466
a(I0
g170
tp467
a(I1
g118
tp468
a(I2
g168
tp469
a(I3
g120
tp470
a(I0
g170
tp471
a(I1
g168
tp472
a(I2
g118
tp473
a(I3
g120
tp474
a(I0
g120
tp475
a(I1
g168
tp476
a(I2
g168
tp477
a(I3
g170
tp478
a(I0
g120
tp479
a(I1
g118
tp480
a(I2
g168
tp481
a(I3
g170
tp482
a(I0
g168
tp483
a(I1
g118
tp484
a(I2
g168
tp485
a(I3
g170
tp486
a(I0
g170
tp487
a(I1
g170
tp488
a(I2
g168
tp489
a(I3
g170
tp490
a(I0
g118
tp491
a(I1
g170
tp492
a(I2
g168
tp493
a(I3
g118
tp494
a(I0
g118
tp495
a(I1
g168
tp496
a(I2
g168
tp497
a(I3
g118
tp498
a(I0
g168
tp499
a(I1
g168
tp500
a(I2
g120
tp501
a(I3
g168
tp502
a(I0
g168
tp503
a(I1
g120
tp504
a(I2
g168
tp505
a(I3
g170
tp506
a(I0
g168
tp507
a(I1
g120
tp508
a(I2
g168
tp509
a(I3
g120
tp510
a(I0
g168
tp511
a(I1
g168
tp512
a(I2
g120
tp513
a(I3
g170
tp514
a(I0
g120
tp515
a(I1
g168
tp516
a(I2
g168
tp517
a(I3
g170
tp518
a(I0
g168
tp519
a(I1
g118
tp520
a(I2
g168
tp521
a(I3
g120
tp522
a(I0
g168
tp523
a(I1
g168
tp524
a(I2
g120
tp525
a(I3
g118
tp526
a(I0
g120
tp527
a(I1
g170
tp528
a(I2
g168
tp529
a(I3
g118
tp530
a(I0
g120
tp531
a(I1
g118
tp532
a(I2
g168
tp533
a(I3
g118
tp534
a(I0
g120
tp535
a(I1
g118
tp536
a(I2
g120
tp537
a(I3
g118
tp538
a(I0
g120
tp539
a(I1
g118
tp540
a(I2
g168
tp541
a(I3
g118
tp542
a(I0
g120
tp543
a(I1
g170
tp544
a(I2
g168
tp545
a(I3
g118
tp546
a(I0
g168
tp547
a(I1
g170
tp548
a(I2
g168
tp549
a(I3
g170
tp550
a(I0
g120
tp551
a(I1
g207
tp552
a(I2
g168
tp553
a(I3
g118
tp554
a(I0
g168
tp555
a(I1
g207
tp556
a(I2
g168
tp557
a(I3
g170
tp558
a(I0
g170
tp559
a(I1
g207
tp560
a(I2
g168
tp561
a(I3
g168
tp562
a(I0
g120
tp563
a(I1
g168
tp564
a(I2
g118
tp565
a(I3
g118
tp566
a(I0
g120
tp567
a(I1
g168
tp568
a(I2
g168
tp569
a(I3
g118
tp570
a(I0
g207
tp571
a(I1
g120
tp572
a(I2
g207
tp573
a(I3
g168
tp574
a(I0
g118
tp575
a(I1
g120
tp576
a(I2
g207
tp577
a(I3
g168
tp578
a(I0
g120
tp579
a(I1
g120
tp580
a(I2
g170
tp581
a(I3
g120
tp582
a(I0
g170
tp583
a(I1
g118
tp584
a(I2
g118
tp585
a(I3
g168
tp586
a(I0
g168
tp587
a(I1
g118
tp588
a(I2
g118
tp589
a(I3
g168
tp590
a(I0
g168
tp591
a(I1
g168
tp592
a(I2
g118
tp593
a(I3
g170
tp594
a(I0
g120
tp595
a(I1
g168
tp596
a(I2
g118
tp597
a(I3
g120
tp598
a(I0
g120
tp599
a(I1
g168
tp600
a(I2
g118
tp601
a(I3
g118
tp602
a(I0
g120
tp603
a(I1
g120
tp604
a(I2
g118
tp605
a(I3
g170
tp606
a(I0
g120
tp607
a(I1
g120
tp608
a(I2
g118
tp609
a(I3
g118
tp610
a(I0
g168
tp611
a(I1
g120
tp612
a(I2
g118
tp613
a(I3
g118
tp614
a(I0
g168
tp615
a(I1
g120
tp616
a(I2
g118
tp617
a(I3
g118
tp618
a(I0
g118
tp619
a(I1
g168
tp620
a(I2
g118
tp621
a(I3
g170
tp622
a(I0
g118
tp623
a(I1
g168
tp624
a(I2
g118
tp625
a(I3
g168
tp626
a(I0
g118
tp627
a(I1
g118
tp628
a(I2
g118
tp629
a(I3
g118
tp630
a(I0
g118
tp631
a(I1
g118
tp632
a(I2
g118
tp633
a(I3
g118
tp634
a(I0
g118
tp635
a(I1
g118
tp636
a(I2
g168
tp637
a(I3
g170
tp638
a(I0
g118
tp639
a(I1
g118
tp640
a(I2
g168
tp641
a(I3
g168
tp642
a(I0
g118
tp643
a(I1
g118
tp644
a(I2
g120
tp645
a(I3
g120
tp646
a(I0
g118
tp647
a(I1
g118
tp648
a(I2
g120
tp649
a(I3
g168
tp650
a(I0
g118
tp651
a(I1
g118
tp652
a(I2
g120
tp653
a(I3
g168
tp654
a(I0
g118
tp655
a(I1
g118
tp656
a(I2
g120
tp657
a(I3
g118
tp658
a(I0
g118
tp659
a(I1
g118
tp660
a(I2
g168
tp661
a(I3
g120
tp662
a(I0
g118
tp663
a(I1
g118
tp664
a(I2
g120
tp665
a(I3
g120
tp666
a(I0
g118
tp667
a(I1
g118
tp668
a(I2
g120
tp669
a(I3
g120
tp670
a(I0
g207
tp671
a(I1
g118
tp672
a(I2
g120
tp673
a(I3
g168
tp674
a(I0
g120
tp675
a(I1
g120
tp676
a(I2
g168
tp677
a(I3
g168
tp678
a(I0
g118
tp679
a(I1
g120
tp680
a(I2
g120
tp681
a(I3
g170
tp682
a(I0
g118
tp683
a(I1
g120
tp684
a(I2
g120
tp685
a(I3
g170
tp686
a(I0
g118
tp687
a(I1
g120
tp688
a(I2
g168
tp689
a(I3
g118
tp690
a(I0
g118
tp691
a(I1
g120
tp692
a(I2
g168
tp693
a(I3
g118
tp694
a(I0
g118
tp695
a(I1
g120
tp696
a(I2
g118
tp697
a(I3
g168
tp698
a(I0
g118
tp699
a(I1
g120
tp700
a(I2
g168
tp701
a(I3
g168
tp702
a(I0
g118
tp703
a(I1
g120
tp704
a(I2
g168
tp705
a(I3
g118
tp706
a(I0
g118
tp707
a(I1
g120
tp708
a(I2
g168
tp709
a(I3
g120
tp710
a(I0
g118
tp711
a(I1
g120
tp712
a(I2
g168
tp713
a(I3
g168
tp714
a(I0
g118
tp715
a(I1
g120
tp716
a(I2
g168
tp717
a(I3
g168
tp718
a(I0
g118
tp719
a(I1
g120
tp720
a(I2
g168
tp721
a(I3
g120
tp722
a(I0
g118
tp723
a(I1
g170
tp724
a(I2
g120
tp725
a(I3
g120
tp726
a(I0
g168
tp727
a(I1
g170
tp728
a(I2
g168
tp729
a(I3
g120
tp730
a(I0
g168
tp731
a(I1
g118
tp732
a(I2
g168
tp733
a(I3
g120
tp734
a(I0
g120
tp735
a(I1
g118
tp736
a(I2
g120
tp737
a(I3
g170
tp738
a(I0
g120
tp739
a(I1
g118
tp740
a(I2
g168
tp741
a(I3
g170
tp742
a(I0
g120
tp743
a(I1
g118
tp744
a(I2
g168
tp745
a(I3
g168
tp746
a(I0
g120
tp747
a(I1
g170
tp748
a(I2
g120
tp749
a(I3
g168
tp750
a(I0
g168
tp751
a(I1
g170
tp752
a(I2
g168
tp753
a(I3
g120
tp754
a(I0
g120
tp755
a(I1
g170
tp756
a(I2
g168
tp757
a(I3
g120
tp758
a(I0
g120
tp759
a(I1
g207
tp760
a(I2
g120
tp761
a(I3
g120
tp762
a(I0
g120
tp763
a(I1
g207
tp764
a(I2
g168
tp765
a(I3
g170
tp766
a(I0
g168
tp767
a(I1
g207
tp768
a(I2
g168
tp769
a(I3
g170
tp770
a(I0
g120
tp771
a(I1
g207
tp772
a(I2
g168
tp773
a(I3
g118
tp774
a(I0
g120
tp775
a(I1
g207
tp776
a(I2
g168
tp777
a(I3
g120
tp778
a(I0
g168
tp779
a(I1
g120
tp780
a(I2
g168
tp781
a(I3
g170
tp782
a(I0
g168
tp783
a(I1
g120
tp784
a(I2
g170
tp785
a(I3
g120
tp786
asS'length'
p787
I1200
sS'agents'
p788
(lp789
(igame
Agent
p790
(dp791
S'index'
p792
I0
sba(igame
Agent
p793
(dp794
g792
I0
sba(igame
Agent
p795
(dp796
g792
I0
sba(igame
Agent
p797
(dp798
g792
I0
sbasS'redTeamName'
p799
S'HAL9001'
p800
s.