(dp1
S'layout'
p2
(ilayout
Layout
p3
(dp4
S'capsules'
p5
(lp6
(I30
I7
tp7
a(I11
I8
tp8
a(I22
I9
tp9
a(I3
I10
tp10
asS'numGhosts'
p11
I4
sS'food'
p12
(igame
Grid
p13
(dp14
S'CELLS_PER_INT'
p15
I30
sS'width'
p16
I34
sS'data'
p17
(lp18
(lp19
I00
aI00
aI00
aI00
aI00
aI00
aI00
aI00
aI00
aI00
aI00
aI00
aI00
aI00
aI00
aI00
aI00
aI00
aa(lp20
I00
aI00
aI00
aI00
aI00
aI00
aI00
aI00
aI00
aI00
aI00
aI00
aI00
aI00
aI00
aI00
aI00
aI00
aa(lp21
I00
aI00
aI00
aI00
aI00
aI00
aI00
aI00
aI00
aI00
aI00
aI00
aI00
aI00
aI00
aI00
aI00
aI00
aa(lp22
I00
aI00
aI00
aI00
aI00
aI00
aI01
aI01
aI00
aI00
aI00
aI00
aI00
aI00
aI00
aI00
aI01
aI00
aa(lp23
I00
aI00
aI00
aI00
aI00
aI00
aI00
aI00
aI00
aI00
aI00
aI00
aI00
aI00
aI00
aI00
aI00
aI00
aa(lp24
I00
aI00
aI00
aI00
aI00
aI00
aI01
aI01
aI00
aI00
aI01
aI01
aI00
aI00
aI00
aI00
aI00
aI00
aa(lp25
I00
aI00
aI00
aI00
aI00
aI00
aI00
aI00
aI00
aI00
aI00
aI00
aI00
aI00
aI00
aI00
aI00
aI00
aa(lp26
I00
aI00
aI00
aI00
aI00
aI00
aI00
aI01
aI00
aI01
aI00
aI00
aI00
aI00
aI01
aI01
aI01
aI00
aa(lp27
I00
aI00
aI00
aI00
aI01
aI00
aI00
aI00
aI00
aI00
aI00
aI00
aI00
aI00
aI00
aI00
aI00
aI00
aa(lp28
I00
aI01
aI00
aI00
aI01
aI00
aI00
aI00
aI00
aI00
aI00
aI00
aI01
aI01
aI00
aI01
aI00
aI00
aa(lp29
I00
aI00
aI00
aI00
aI00
aI00
aI00
aI00
aI00
aI01
aI00
aI00
aI00
aI00
aI00
aI01
aI00
aI00
aa(lp30
I00
aI01
aI00
aI00
aI00
aI00
aI00
aI00
aI00
aI00
aI00
aI00
aI00
aI00
aI00
aI00
aI00
aI00
aa(lp31
I00
aI01
aI00
aI00
aI00
aI00
aI00
aI00
aI00
aI00
aI00
aI00
aI00
aI01
aI00
aI00
aI01
aI00
aa(lp32
I00
aI00
aI00
aI00
aI00
aI00
aI00
aI00
aI00
aI01
aI01
aI00
aI00
aI00
aI00
aI01
aI00
aI00
aa(lp33
I00
aI01
aI00
aI00
aI01
aI00
aI00
aI00
aI01
aI00
aI00
aI00
aI00
aI00
aI00
aI00
aI00
aI00
aa(lp34
I00
aI00
aI00
aI00
aI00
aI00
aI00
aI00
aI00
aI00
aI00
aI00
aI00
aI00
aI00
aI00
aI00
aI00
aa(lp35
I00
aI00
aI00
aI00
aI00
aI00
aI00
aI00
aI00
aI00
aI00
aI00
aI00
aI00
aI00
aI00
aI00
aI00
aa(lp36
I00
aI00
aI00
aI00
aI00
aI00
aI00
aI00
aI00
aI00
aI00
aI00
aI00
aI00
aI00
aI00
aI00
aI00
aa(lp37
I00
aI00
aI00
aI00
aI00
aI00
aI00
aI00
aI00
aI00
aI00
aI00
aI00
aI00
aI00
aI00
aI00
aI00
aa(lp38
I00
aI00
aI00
aI00
aI00
aI00
aI00
aI00
aI00
aI01
aI00
aI00
aI00
aI01
aI00
aI00
aI01
aI00
aa(lp39
I00
aI00
aI01
aI00
aI00
aI00
aI00
aI01
aI01
aI00
aI00
aI00
aI00
aI00
aI00
aI00
aI00
aI00
aa(lp40
I00
aI01
aI00
aI00
aI01
aI00
aI00
aI00
aI00
aI00
aI00
aI00
aI00
aI00
aI00
aI00
aI01
aI00
aa(lp41
I00
aI00
aI00
aI00
aI00
aI00
aI00
aI00
aI00
aI00
aI00
aI00
aI00
aI00
aI00
aI00
aI01
aI00
aa(lp42
I00
aI00
aI01
aI00
aI00
aI00
aI00
aI00
aI01
aI00
aI00
aI00
aI00
aI00
aI00
aI00
aI00
aI00
aa(lp43
I00
aI00
aI01
aI00
aI01
aI01
aI00
aI00
aI00
aI00
aI00
aI00
aI00
aI01
aI00
aI00
aI01
aI00
aa(lp44
I00
aI00
aI00
aI00
aI00
aI00
aI00
aI00
aI00
aI00
aI00
aI00
aI00
aI01
aI00
aI00
aI00
aI00
aa(lp45
I00
aI01
aI01
aI01
aI00
aI00
aI00
aI00
aI01
aI00
aI01
aI00
aI00
aI00
aI00
aI00
aI00
aI00
aa(lp46
I00
aI00
aI00
aI00
aI00
aI00
aI00
aI00
aI00
aI00
aI00
aI00
aI00
aI00
aI00
aI00
aI00
aI00
aa(lp47
I00
aI00
aI00
aI00
aI00
aI00
aI01
aI01
aI00
aI00
aI01
aI01
aI00
aI00
aI00
aI00
aI00
aI00
aa(lp48
I00
aI00
aI00
aI00
aI00
aI00
aI00
aI00
aI00
aI00
aI00
aI00
aI00
aI00
aI00
aI00
aI00
aI00
aa(lp49
I00
aI01
aI00
aI00
aI00
aI00
aI00
aI00
aI00
aI00
aI01
aI01
aI00
aI00
aI00
aI00
aI00
aI00
aa(lp50
I00
aI00
aI00
aI00
aI00
aI00
aI00
aI00
aI00
aI00
aI00
aI00
aI00
aI00
aI00
aI00
aI00
aI00
aa(lp51
I00
aI00
aI00
aI00
aI00
aI00
aI00
aI00
aI00
aI00
aI00
aI00
aI00
aI00
aI00
aI00
aI00
aI00
aa(lp52
I00
aI00
aI00
aI00
aI00
aI00
aI00
aI00
aI00
aI00
aI00
aI00
aI00
aI00
aI00
aI00
aI00
aI00
aasS'height'
p53
I18
sbsS'agentPositions'
p54
(lp55
(I00
(I1
I2
tp56
tp57
a(I00
(I32
I15
tp58
tp59
a(I00
(I1
I1
tp60
tp61
a(I00
(I32
I16
tp62
tp63
asg53
I18
sg16
I34
sS'walls'
p64
(igame
Grid
p65
(dp66
g15
I30
sg16
I34
sg17
(lp67
(lp68
I01
aI01
aI01
aI01
aI01
aI01
aI01
aI01
aI01
aI01
aI01
aI01
aI01
aI01
aI01
aI01
aI01
aI01
aa(lp69
I01
aI00
aI00
aI00
aI00
aI00
aI00
aI00
aI00
aI00
aI00
aI00
aI00
aI00
aI00
aI00
aI00
aI01
aa(lp70
I01
aI01
aI01
aI01
aI01
aI01
aI01
aI01
aI01
aI01
aI01
aI01
aI01
aI01
aI01
aI01
aI00
aI01
aa(lp71
I01
aI00
aI00
aI00
aI00
aI01
aI00
aI00
aI00
aI00
aI00
aI00
aI00
aI00
aI00
aI00
aI00
aI01
aa(lp72
I01
aI01
aI01
aI00
aI01
aI01
aI01
aI01
aI01
aI01
aI01
aI01
aI01
aI01
aI00
aI01
aI01
aI01
aa(lp73
I01
aI00
aI01
aI00
aI00
aI01
aI00
aI00
aI00
aI01
aI00
aI00
aI00
aI00
aI00
aI00
aI00
aI01
aa(lp74
I01
aI00
aI01
aI01
aI00
aI01
aI01
aI01
aI00
aI01
aI01
aI01
aI01
aI00
aI01
aI01
aI00
aI01
aa(lp75
I01
aI00
aI01
aI00
aI00
aI00
aI00
aI00
aI00
aI00
aI00
aI00
aI00
aI00
aI00
aI00
aI00
aI01
aa(lp76
I01
aI00
aI00
aI00
aI00
aI01
aI00
aI01
aI01
aI01
aI01
aI01
aI01
aI01
aI01
aI01
aI00
aI01
aa(lp77
I01
aI00
aI01
aI00
aI00
aI00
aI00
aI00
aI00
aI00
aI00
aI00
aI00
aI00
aI01
aI00
aI00
aI01
aa(lp78
I01
aI01
aI01
aI01
aI01
aI01
aI01
aI01
aI01
aI00
aI01
aI00
aI01
aI01
aI01
aI00
aI01
aI01
aa(lp79
I01
aI00
aI01
aI00
aI00
aI01
aI00
aI00
aI00
aI00
aI01
aI00
aI00
aI00
aI01
aI00
aI00
aI01
aa(lp80
I01
aI00
aI00
aI00
aI00
aI00
aI00
aI01
aI00
aI00
aI01
aI00
aI00
aI00
aI01
aI01
aI00
aI01
aa(lp81
I01
aI01
aI01
aI01
aI01
aI01
aI00
aI01
aI01
aI00
aI00
aI00
aI00
aI00
aI00
aI00
aI00
aI01
aa(lp82
I01
aI00
aI01
aI00
aI00
aI00
aI00
aI00
aI00
aI00
aI01
aI00
aI00
aI00
aI01
aI00
aI00
aI01
aa(lp83
I01
aI00
aI00
aI00
aI01
aI00
aI01
aI01
aI01
aI01
aI01
aI00
aI01
aI01
aI01
aI01
aI01
aI01
aa(lp84
I01
aI00
aI01
aI00
aI00
aI00
aI00
aI00
aI00
aI00
aI00
aI00
aI00
aI00
aI00
aI00
aI00
aI01
aa(lp85
I01
aI00
aI00
aI00
aI00
aI00
aI00
aI00
aI00
aI00
aI00
aI00
aI00
aI00
aI00
aI01
aI00
aI01
aa(lp86
I01
aI01
aI01
aI01
aI01
aI01
aI00
aI01
aI01
aI01
aI01
aI01
aI00
aI01
aI00
aI00
aI00
aI01
aa(lp87
I01
aI00
aI00
aI01
aI00
aI00
aI00
aI01
aI00
aI00
aI00
aI00
aI00
aI00
aI00
aI01
aI00
aI01
aa(lp88
I01
aI00
aI00
aI00
aI00
aI00
aI00
aI00
aI00
aI01
aI01
aI00
aI01
aI01
aI01
aI01
aI01
aI01
aa(lp89
I01
aI00
aI01
aI01
aI00
aI00
aI00
aI01
aI00
aI00
aI01
aI00
aI00
aI00
aI00
aI00
aI00
aI01
aa(lp90
I01
aI00
aI00
aI01
aI00
aI00
aI00
aI01
aI00
aI00
aI00
aI00
aI01
aI00
aI00
aI01
aI00
aI01
aa(lp91
I01
aI01
aI00
aI01
aI01
aI01
aI00
aI01
aI00
aI01
aI01
aI01
aI01
aI01
aI01
aI01
aI01
aI01
aa(lp92
I01
aI00
aI00
aI01
aI00
aI00
aI00
aI00
aI00
aI00
aI00
aI00
aI00
aI00
aI00
aI01
aI00
aI01
aa(lp93
I01
aI00
aI01
aI01
aI01
aI01
aI01
aI01
aI01
aI01
aI01
aI00
aI01
aI00
aI00
aI00
aI00
aI01
aa(lp94
I01
aI00
aI00
aI00
aI00
aI00
aI00
aI00
aI00
aI00
aI00
aI00
aI00
aI00
aI00
aI01
aI00
aI01
aa(lp95
I01
aI00
aI01
aI01
aI00
aI01
aI01
aI01
aI01
aI00
aI01
aI01
aI01
aI00
aI01
aI01
aI00
aI01
aa(lp96
I01
aI00
aI00
aI00
aI00
aI00
aI00
aI00
aI01
aI00
aI00
aI00
aI01
aI00
aI00
aI01
aI00
aI01
aa(lp97
I01
aI01
aI01
aI00
aI01
aI01
aI01
aI01
aI01
aI01
aI01
aI01
aI01
aI01
aI00
aI01
aI01
aI01
aa(lp98
I01
aI00
aI00
aI00
aI00
aI00
aI00
aI00
aI00
aI00
aI00
aI00
aI01
aI00
aI00
aI00
aI00
aI01
aa(lp99
I01
aI00
aI01
aI01
aI01
aI01
aI01
aI01
aI01
aI01
aI01
aI01
aI01
aI01
aI01
aI01
aI01
aI01
aa(lp100
I01
aI00
aI00
aI00
aI00
aI00
aI00
aI00
aI00
aI00
aI00
aI00
aI00
aI00
aI00
aI00
aI00
aI01
aa(lp101
I01
aI01
aI01
aI01
aI01
aI01
aI01
aI01
aI01
aI01
aI01
aI01
aI01
aI01
aI01
aI01
aI01
aI01
aasg53
I18
sbsS'layoutText'
p102
(lp103
S'%%%%%%%%%%%%%%%%%%%%%%%%%%%%%%%%%%'
p104
aS'%  .%  .  % .  %   .%..%.    % %4%'
p105
aS'% % % %.%.. %. % % %% %%% %%%% %2%'
p106
aS'% %   %.%%%%% %%    %  %   %   % %'
p107
aS'% % %   %.% .  %  %.%  %..   % % %'
p108
aS'% % % % %.%    %    % %% % %%%%% %'
p109
aS'% % %.% %         %    %   %.%.% %'
p110
aS'% %o%.% % %%%.%%  % %% % %.%.%.% %'
p111
aS'% % %%%.% .  . %  %.% o% %   % % %'
p112
aS'% % %   % %o %.%  % .  . %.%%% % %'
p113
aS'% %.%.%.% % %% %  %%.%%% % %.%o% %'
p114
aS'% %.%.%   %    %         % %.% % %'
p115
aS'% %%%%% % %% %    %    %.% % % % %'
p116
aS'% % %   ..%  %.%  %  . %.%   % % %'
p117
aS'% %   %   %  %    %% %%%%%.%   % %'
p118
aS'%1% %%%% %%% %% % % .% ..%.% % % %'
p119
aS'%3% %    .%..%.   %  . %  .  %.  %'
p120
aS'%%%%%%%%%%%%%%%%%%%%%%%%%%%%%%%%%%'
p121
asbsS'blueTeamName'
p122
S'rivers'
p123
sS'actions'
p124
(lp125
(I1
S'South'
p126
tp127
a(I2
S'North'
p128
tp129
a(I3
g126
tp130
a(I0
g128
tp131
a(I1
g126
tp132
a(I2
g128
tp133
a(I3
g126
tp134
a(I0
g128
tp135
a(I1
g126
tp136
a(I2
g128
tp137
a(I3
g126
tp138
a(I0
g128
tp139
a(I1
g126
tp140
a(I2
g128
tp141
a(I3
g126
tp142
a(I0
g128
tp143
a(I1
g126
tp144
a(I2
g128
tp145
a(I3
g126
tp146
a(I0
g128
tp147
a(I1
g126
tp148
a(I2
g128
tp149
a(I3
g126
tp150
a(I0
g128
tp151
a(I1
g126
tp152
a(I2
g128
tp153
a(I3
g126
tp154
a(I0
g128
tp155
a(I1
g126
tp156
a(I2
g128
tp157
a(I3
g126
tp158
a(I0
g128
tp159
a(I1
g126
tp160
a(I2
g128
tp161
a(I3
g126
tp162
a(I0
g128
tp163
a(I1
g126
tp164
a(I2
g128
tp165
a(I3
g126
tp166
a(I0
g128
tp167
a(I1
g126
tp168
a(I2
g128
tp169
a(I3
g126
tp170
a(I0
g128
tp171
a(I1
g126
tp172
a(I2
g128
tp173
a(I3
g126
tp174
a(I0
g128
tp175
a(I1
g126
tp176
a(I2
g128
tp177
a(I3
g126
tp178
a(I0
g128
tp179
a(I1
g126
tp180
a(I2
g128
tp181
a(I3
g126
tp182
a(I0
g128
tp183
a(I1
S'West'
p184
tp185
a(I2
g128
tp186
a(I3
g126
tp187
a(I0
S'East'
p188
tp189
a(I1
g184
tp190
a(I2
g188
tp191
a(I3
g184
tp192
a(I0
g188
tp193
a(I1
g128
tp194
a(I2
g188
tp195
a(I3
g184
tp196
a(I0
g126
tp197
a(I1
g128
tp198
a(I2
g126
tp199
a(I3
g128
tp200
a(I0
g126
tp201
a(I1
g184
tp202
a(I2
g126
tp203
a(I3
g128
tp204
a(I0
g188
tp205
a(I1
g184
tp206
a(I2
g188
tp207
a(I3
g128
tp208
a(I0
g188
tp209
a(I1
g126
tp210
a(I2
g188
tp211
a(I3
g128
tp212
a(I0
g128
tp213
a(I1
g126
tp214
a(I2
g128
tp215
a(I3
g128
tp216
a(I0
g128
tp217
a(I1
g184
tp218
a(I2
g128
tp219
a(I3
g128
tp220
a(I0
g188
tp221
a(I1
g184
tp222
a(I2
g188
tp223
a(I3
g128
tp224
a(I0
g188
tp225
a(I1
g184
tp226
a(I2
g188
tp227
a(I3
g128
tp228
a(I0
g188
tp229
a(I1
g184
tp230
a(I2
g188
tp231
a(I3
g128
tp232
a(I0
g188
tp233
a(I1
g128
tp234
a(I2
g188
tp235
a(I3
g128
tp236
a(I0
g126
tp237
a(I1
g184
tp238
a(I2
g126
tp239
a(I3
g126
tp240
a(I0
g188
tp241
a(I1
g184
tp242
a(I2
g188
tp243
a(I3
g126
tp244
a(I0
g188
tp245
a(I1
g126
tp246
a(I2
g188
tp247
a(I3
g126
tp248
a(I0
g128
tp249
a(I1
g184
tp250
a(I2
g128
tp251
a(I3
g126
tp252
a(I0
g188
tp253
a(I1
g184
tp254
a(I2
g188
tp255
a(I3
g126
tp256
a(I0
g188
tp257
a(I1
g128
tp258
a(I2
g188
tp259
a(I3
g126
tp260
a(I0
g126
tp261
a(I1
g128
tp262
a(I2
g126
tp263
a(I3
g126
tp264
a(I0
g126
tp265
a(I1
g128
tp266
a(I2
g126
tp267
a(I3
g126
tp268
a(I0
g126
tp269
a(I1
g184
tp270
a(I2
g126
tp271
a(I3
g126
tp272
a(I0
g188
tp273
a(I1
g128
tp274
a(I2
g126
tp275
a(I3
g126
tp276
a(I0
g126
tp277
a(I1
g128
tp278
a(I2
g188
tp279
a(I3
g188
tp280
a(I0
g126
tp281
a(I1
g184
tp282
a(I2
g126
tp283
a(I3
g188
tp284
a(I0
g188
tp285
a(I1
g184
tp286
a(I2
g188
tp287
a(I3
g128
tp288
a(I0
g188
tp289
a(I1
g184
tp290
a(I2
g188
tp291
a(I3
g128
tp292
a(I0
g126
tp293
a(I1
g126
tp294
a(I2
g126
tp295
a(I3
g128
tp296
a(I0
g126
tp297
a(I1
g184
tp298
a(I2
g126
tp299
a(I3
g128
tp300
a(I0
g126
tp301
a(I1
g184
tp302
a(I2
g126
tp303
a(I3
g128
tp304
a(I0
g126
tp305
a(I1
g126
tp306
a(I2
g126
tp307
a(I3
g128
tp308
a(I0
g126
tp309
a(I1
g128
tp310
a(I2
g126
tp311
a(I3
g128
tp312
a(I0
g126
tp313
a(I1
g128
tp314
a(I2
g126
tp315
a(I3
g128
tp316
a(I0
g184
tp317
a(I1
g128
tp318
a(I2
g184
tp319
a(I3
g128
tp320
a(I0
g184
tp321
a(I1
g128
tp322
a(I2
g184
tp323
a(I3
g128
tp324
a(I0
g128
tp325
a(I1
g128
tp326
a(I2
g128
tp327
a(I3
g128
tp328
a(I0
g128
tp329
a(I1
g184
tp330
a(I2
g128
tp331
a(I3
g128
tp332
a(I0
g128
tp333
a(I1
g128
tp334
a(I2
g128
tp335
a(I3
g128
tp336
a(I0
g128
tp337
a(I1
g128
tp338
a(I2
g128
tp339
a(I3
g128
tp340
a(I0
g184
tp341
a(I1
g184
tp342
a(I2
g184
tp343
a(I3
g128
tp344
a(I0
g128
tp345
a(I1
g128
tp346
a(I2
g128
tp347
a(I3
g126
tp348
a(I0
g128
tp349
a(I1
g128
tp350
a(I2
g128
tp351
a(I3
g126
tp352
a(I0
g184
tp353
a(I1
g188
tp354
a(I2
g128
tp355
a(I3
g126
tp356
a(I0
g188
tp357
a(I1
g128
tp358
a(I2
g128
tp359
a(I3
g126
tp360
a(I0
g128
tp361
a(I1
g128
tp362
a(I2
g128
tp363
a(I3
g126
tp364
a(I0
g128
tp365
a(I1
g128
tp366
a(I2
g128
tp367
a(I3
g126
tp368
a(I0
g128
tp369
a(I1
g184
tp370
a(I2
g128
tp371
a(I3
g126
tp372
a(I0
g128
tp373
a(I1
g184
tp374
a(I2
g184
tp375
a(I3
g126
tp376
a(I0
g128
tp377
a(I1
g126
tp378
a(I2
g184
tp379
a(I3
g126
tp380
a(I0
g184
tp381
a(I1
g184
tp382
a(I2
g126
tp383
a(I3
g126
tp384
a(I0
g184
tp385
a(I1
g184
tp386
a(I2
g184
tp387
a(I3
g126
tp388
a(I0
g126
tp389
a(I1
g128
tp390
a(I2
g184
tp391
a(I3
g126
tp392
a(I0
g184
tp393
a(I1
g184
tp394
a(I2
g128
tp395
a(I3
g126
tp396
a(I0
g184
tp397
a(I1
g184
tp398
a(I2
g184
tp399
a(I3
g126
tp400
a(I0
g128
tp401
a(I1
g126
tp402
a(I2
g184
tp403
a(I3
g126
tp404
a(I0
g184
tp405
a(I1
g126
tp406
a(I2
g126
tp407
a(I3
g184
tp408
a(I0
g184
tp409
a(I1
g126
tp410
a(I2
g126
tp411
a(I3
g184
tp412
a(I0
g126
tp413
a(I1
g126
tp414
a(I2
g126
tp415
a(I3
g128
tp416
a(I0
g126
tp417
a(I1
g126
tp418
a(I2
g126
tp419
a(I3
g128
tp420
a(I0
g126
tp421
a(I1
g126
tp422
a(I2
g126
tp423
a(I3
g128
tp424
a(I0
g126
tp425
a(I1
g126
tp426
a(I2
g126
tp427
a(I3
g128
tp428
a(I0
g126
tp429
a(I1
g126
tp430
a(I2
g126
tp431
a(I3
g128
tp432
a(I0
g126
tp433
a(I1
g126
tp434
a(I2
g126
tp435
a(I3
g128
tp436
a(I0
g126
tp437
a(I1
g126
tp438
a(I2
g126
tp439
a(I3
g128
tp440
a(I0
g126
tp441
a(I1
g126
tp442
a(I2
g126
tp443
a(I3
g128
tp444
a(I0
g126
tp445
a(I1
g126
tp446
a(I2
g126
tp447
a(I3
g128
tp448
a(I0
g126
tp449
a(I1
g188
tp450
a(I2
g126
tp451
a(I3
g128
tp452
a(I0
g126
tp453
a(I1
g188
tp454
a(I2
g188
tp455
a(I3
g126
tp456
a(I0
g126
tp457
a(I1
g126
tp458
a(I2
g188
tp459
a(I3
g126
tp460
a(I0
g188
tp461
a(I1
g184
tp462
a(I2
g184
tp463
a(I3
g126
tp464
a(I0
g126
tp465
a(I1
g126
tp466
a(I2
g188
tp467
a(I3
g126
tp468
a(I0
g128
tp469
a(I1
g126
tp470
a(I2
g128
tp471
a(I3
g126
tp472
a(I0
g188
tp473
a(I1
g126
tp474
a(I2
g128
tp475
a(I3
g126
tp476
a(I0
g128
tp477
a(I1
g126
tp478
a(I2
g128
tp479
a(I3
g126
tp480
a(I0
g128
tp481
a(I1
g126
tp482
a(I2
g128
tp483
a(I3
g126
tp484
a(I0
g128
tp485
a(I1
g126
tp486
a(I2
g128
tp487
a(I3
g184
tp488
a(I0
g128
tp489
a(I1
g126
tp490
a(I2
g128
tp491
a(I3
g184
tp492
a(I0
g128
tp493
a(I1
g126
tp494
a(I2
g128
tp495
a(I3
g126
tp496
a(I0
g128
tp497
a(I1
g126
tp498
a(I2
g188
tp499
a(I3
g126
tp500
a(I0
g128
tp501
a(I1
g126
tp502
a(I2
g188
tp503
a(I3
g184
tp504
a(I0
g188
tp505
a(I1
g126
tp506
a(I2
g188
tp507
a(I3
g184
tp508
a(I0
g188
tp509
a(I1
g126
tp510
a(I2
g188
tp511
a(I3
g184
tp512
a(I0
g188
tp513
a(I1
g126
tp514
a(I2
g188
tp515
a(I3
g184
tp516
a(I0
g188
tp517
a(I1
g126
tp518
a(I2
g188
tp519
a(I3
g128
tp520
a(I0
g188
tp521
a(I1
g184
tp522
a(I2
g188
tp523
a(I3
g184
tp524
a(I0
g188
tp525
a(I1
g184
tp526
a(I2
g188
tp527
a(I3
g184
tp528
a(I0
g188
tp529
a(I1
g128
tp530
a(I2
g128
tp531
a(I3
g126
tp532
a(I0
g188
tp533
a(I1
g128
tp534
a(I2
g188
tp535
a(I3
g184
tp536
a(I0
g128
tp537
a(I1
g184
tp538
a(I2
g188
tp539
a(I3
g184
tp540
a(I0
g188
tp541
a(I1
g184
tp542
a(I2
g128
tp543
a(I3
g128
tp544
a(I0
g184
tp545
a(I1
g126
tp546
a(I2
g126
tp547
a(I3
g128
tp548
a(I0
g128
tp549
a(I1
g126
tp550
a(I2
g126
tp551
a(I3
g128
tp552
a(I0
g128
tp553
a(I1
g184
tp554
a(I2
g126
tp555
a(I3
g128
tp556
a(I0
g188
tp557
a(I1
g184
tp558
a(I2
g126
tp559
a(I3
g128
tp560
a(I0
g128
tp561
a(I1
g184
tp562
a(I2
g126
tp563
a(I3
g128
tp564
a(I0
g128
tp565
a(I1
g184
tp566
a(I2
g128
tp567
a(I3
g128
tp568
a(I0
g188
tp569
a(I1
g128
tp570
a(I2
g128
tp571
a(I3
g184
tp572
a(I0
g184
tp573
a(I1
g184
tp574
a(I2
g128
tp575
a(I3
g128
tp576
a(I0
g126
tp577
a(I1
g184
tp578
a(I2
g188
tp579
a(I3
g128
tp580
a(I0
g126
tp581
a(I1
g126
tp582
a(I2
g188
tp583
a(I3
g128
tp584
a(I0
g188
tp585
a(I1
g184
tp586
a(I2
g188
tp587
a(I3
g188
tp588
a(I0
g126
tp589
a(I1
g184
tp590
a(I2
g126
tp591
a(I3
g188
tp592
a(I0
g126
tp593
a(I1
g128
tp594
a(I2
g126
tp595
a(I3
g188
tp596
a(I0
g126
tp597
a(I1
g128
tp598
a(I2
g126
tp599
a(I3
g126
tp600
a(I0
g188
tp601
a(I1
g128
tp602
a(I2
g188
tp603
a(I3
g126
tp604
a(I0
g188
tp605
a(I1
g184
tp606
a(I2
g184
tp607
a(I3
g184
tp608
a(I0
g128
tp609
a(I1
g128
tp610
a(I2
g184
tp611
a(I3
g188
tp612
a(I0
g128
tp613
a(I1
g128
tp614
a(I2
g184
tp615
a(I3
g126
tp616
a(I0
g128
tp617
a(I1
g184
tp618
a(I2
g126
tp619
a(I3
g184
tp620
a(I0
g128
tp621
a(I1
g184
tp622
a(I2
g126
tp623
a(I3
g184
tp624
a(I0
g128
tp625
a(I1
g126
tp626
a(I2
g126
tp627
a(I3
g126
tp628
a(I0
g188
tp629
a(I1
g126
tp630
a(I2
g188
tp631
a(I3
g126
tp632
a(I0
g184
tp633
a(I1
g184
tp634
a(I2
g126
tp635
a(I3
g188
tp636
a(I0
g126
tp637
a(I1
g126
tp638
a(I2
g184
tp639
a(I3
g126
tp640
a(I0
g126
tp641
a(I1
g184
tp642
a(I2
g126
tp643
a(I3
g184
tp644
a(I0
g126
tp645
a(I1
g126
tp646
a(I2
g126
tp647
a(I3
g126
tp648
a(I0
g126
tp649
a(I1
g126
tp650
a(I2
g126
tp651
a(I3
g126
tp652
a(I0
g126
tp653
a(I1
g184
tp654
a(I2
g188
tp655
a(I3
g126
tp656
a(I0
g188
tp657
a(I1
g188
tp658
a(I2
g188
tp659
a(I3
g126
tp660
a(I0
g126
tp661
a(I1
g128
tp662
a(I2
g128
tp663
a(I3
g188
tp664
a(I0
g126
tp665
a(I1
g128
tp666
a(I2
g188
tp667
a(I3
g188
tp668
a(I0
g126
tp669
a(I1
g184
tp670
a(I2
g188
tp671
a(I3
g128
tp672
a(I0
g188
tp673
a(I1
g128
tp674
a(I2
g126
tp675
a(I3
g188
tp676
a(I0
g188
tp677
a(I1
g128
tp678
a(I2
g188
tp679
a(I3
g188
tp680
a(I0
g128
tp681
a(I1
g128
tp682
a(I2
g188
tp683
a(I3
g126
tp684
a(I0
g128
tp685
a(I1
g184
tp686
a(I2
g128
tp687
a(I3
g188
tp688
a(I0
g128
tp689
a(I1
g184
tp690
a(I2
g128
tp691
a(I3
g188
tp692
a(I0
g128
tp693
a(I1
g126
tp694
a(I2
g128
tp695
a(I3
g128
tp696
a(I0
g128
tp697
a(I1
g126
tp698
a(I2
g128
tp699
a(I3
g128
tp700
a(I0
g188
tp701
a(I1
g126
tp702
a(I2
g128
tp703
a(I3
g128
tp704
a(I0
g128
tp705
a(I1
g126
tp706
a(I2
g128
tp707
a(I3
g128
tp708
a(I0
g128
tp709
a(I1
g126
tp710
a(I2
g128
tp711
a(I3
g128
tp712
a(I0
g128
tp713
a(I1
g184
tp714
a(I2
g126
tp715
a(I3
g126
tp716
a(I0
g184
tp717
a(I1
g188
tp718
a(I2
g126
tp719
a(I3
g126
tp720
a(I0
g188
tp721
a(I1
g128
tp722
a(I2
g126
tp723
a(I3
g126
tp724
a(I0
g126
tp725
a(I1
g128
tp726
a(I2
g126
tp727
a(I3
g126
tp728
a(I0
g126
tp729
a(I1
g128
tp730
a(I2
g188
tp731
a(I3
g128
tp732
a(I0
g188
tp733
a(I1
g128
tp734
a(I2
g188
tp735
a(I3
g128
tp736
a(I0
g126
tp737
a(I1
g128
tp738
a(I2
g128
tp739
a(I3
g188
tp740
a(I0
g126
tp741
a(I1
g184
tp742
a(I2
g128
tp743
a(I3
g188
tp744
a(I0
g126
tp745
a(I1
g128
tp746
a(I2
g128
tp747
a(I3
g128
tp748
a(I0
g126
tp749
a(I1
g128
tp750
a(I2
g126
tp751
a(I3
g126
tp752
a(I0
g126
tp753
a(I1
g128
tp754
a(I2
g128
tp755
a(I3
g128
tp756
a(I0
g188
tp757
a(I1
g184
tp758
a(I2
S'Stop'
p759
tp760
a(I3
g128
tp761
a(I0
g188
tp762
a(I1
g184
tp763
a(I2
g126
tp764
a(I3
g126
tp765
a(I0
g128
tp766
a(I1
g128
tp767
a(I2
g128
tp768
a(I3
g126
tp769
a(I0
g128
tp770
a(I1
g128
tp771
a(I2
g128
tp772
a(I3
g184
tp773
a(I0
g126
tp774
a(I1
g128
tp775
a(I2
g128
tp776
a(I3
g184
tp777
a(I0
g126
tp778
a(I1
g128
tp779
a(I2
g128
tp780
a(I3
g128
tp781
a(I0
g184
tp782
a(I1
g126
tp783
a(I2
g128
tp784
a(I3
g128
tp785
a(I0
g184
tp786
a(I1
g126
tp787
a(I2
g128
tp788
a(I3
g128
tp789
a(I0
g188
tp790
a(I1
g126
tp791
a(I2
g128
tp792
a(I3
g128
tp793
a(I0
g188
tp794
a(I1
g126
tp795
a(I2
g128
tp796
a(I3
g128
tp797
a(I0
g128
tp798
a(I1
g126
tp799
a(I2
g128
tp800
a(I3
g188
tp801
a(I0
g128
tp802
a(I1
g126
tp803
a(I2
g128
tp804
a(I3
g188
tp805
a(I0
g759
tp806
a(I1
g126
tp807
a(I2
g128
tp808
a(I3
g128
tp809
a(I0
g126
tp810
a(I1
g126
tp811
a(I2
g128
tp812
a(I3
g128
tp813
a(I0
g128
tp814
a(I1
g126
tp815
a(I2
g128
tp816
a(I3
g126
tp817
a(I0
g128
tp818
a(I1
g184
tp819
a(I2
g128
tp820
a(I3
g126
tp821
a(I0
g128
tp822
a(I1
g126
tp823
a(I2
g128
tp824
a(I3
g184
tp825
a(I0
g128
tp826
a(I1
g126
tp827
a(I2
g188
tp828
a(I3
g184
tp829
a(I0
g128
tp830
a(I1
g126
tp831
a(I2
g188
tp832
a(I3
g126
tp833
a(I0
g128
tp834
a(I1
g188
tp835
a(I2
g126
tp836
a(I3
g126
tp837
a(I0
g128
tp838
a(I1
g184
tp839
a(I2
g126
tp840
a(I3
g126
tp841
a(I0
g128
tp842
a(I1
g128
tp843
a(I2
g188
tp844
a(I3
g126
tp845
a(I0
g128
tp846
a(I1
g128
tp847
a(I2
g188
tp848
a(I3
g126
tp849
a(I0
g128
tp850
a(I1
g128
tp851
a(I2
g128
tp852
a(I3
g126
tp853
a(I0
g128
tp854
a(I1
g184
tp855
a(I2
g128
tp856
a(I3
g126
tp857
a(I0
g128
tp858
a(I1
g128
tp859
a(I2
g188
tp860
a(I3
g126
tp861
a(I0
g128
tp862
a(I1
g128
tp863
a(I2
g188
tp864
a(I3
g188
tp865
a(I0
g128
tp866
a(I1
g128
tp867
a(I2
g188
tp868
a(I3
g188
tp869
a(I0
g188
tp870
a(I1
g128
tp871
a(I2
g188
tp872
a(I3
g128
tp873
a(I0
g188
tp874
a(I1
g184
tp875
a(I2
g126
tp876
a(I3
g128
tp877
a(I0
g126
tp878
a(I1
g184
tp879
a(I2
g188
tp880
a(I3
g188
tp881
a(I0
g126
tp882
a(I1
g126
tp883
a(I2
g188
tp884
a(I3
g188
tp885
a(I0
g188
tp886
a(I1
g126
tp887
a(I2
g128
tp888
a(I3
g128
tp889
a(I0
g188
tp890
a(I1
g128
tp891
a(I2
g188
tp892
a(I3
g128
tp893
a(I0
g128
tp894
a(I1
g128
tp895
a(I2
g188
tp896
a(I3
g128
tp897
a(I0
g128
tp898
a(I1
g188
tp899
a(I2
g126
tp900
a(I3
g128
tp901
a(I0
g188
tp902
a(I1
g188
tp903
a(I2
g126
tp904
a(I3
g128
tp905
a(I0
g188
tp906
a(I1
g128
tp907
a(I2
g126
tp908
a(I3
g128
tp909
a(I0
g188
tp910
a(I1
g128
tp911
a(I2
g126
tp912
a(I3
g128
tp913
a(I0
g188
tp914
a(I1
g128
tp915
a(I2
g126
tp916
a(I3
g128
tp917
a(I0
g126
tp918
a(I1
g128
tp919
a(I2
g184
tp920
a(I3
g126
tp921
a(I0
g128
tp922
a(I1
g128
tp923
a(I2
g188
tp924
a(I3
g126
tp925
a(I0
g184
tp926
a(I1
g184
tp927
a(I2
g128
tp928
a(I3
g126
tp929
a(I0
g184
tp930
a(I1
g184
tp931
a(I2
g128
tp932
a(I3
g126
tp933
a(I0
g126
tp934
a(I1
g126
tp935
a(I2
g128
tp936
a(I3
g126
tp937
a(I0
g126
tp938
a(I1
g126
tp939
a(I2
g128
tp940
a(I3
g126
tp941
a(I0
g126
tp942
a(I1
g126
tp943
a(I2
g128
tp944
a(I3
g126
tp945
a(I0
g184
tp946
a(I1
g128
tp947
a(I2
g184
tp948
a(I3
g126
tp949
a(I0
g184
tp950
a(I1
g128
tp951
a(I2
g184
tp952
a(I3
g126
tp953
a(I0
g126
tp954
a(I1
g126
tp955
a(I2
g188
tp956
a(I3
g126
tp957
a(I0
g128
tp958
a(I1
g126
tp959
a(I2
g188
tp960
a(I3
g188
tp961
a(I0
g128
tp962
a(I1
g126
tp963
a(I2
g126
tp964
a(I3
g188
tp965
a(I0
g128
tp966
a(I1
g126
tp967
a(I2
g126
tp968
a(I3
g128
tp969
a(I0
g128
tp970
a(I1
g126
tp971
a(I2
g126
tp972
a(I3
g128
tp973
a(I0
g188
tp974
a(I1
g126
tp975
a(I2
g188
tp976
a(I3
g128
tp977
a(I0
g188
tp978
a(I1
g126
tp979
a(I2
g126
tp980
a(I3
g128
tp981
a(I0
g188
tp982
a(I1
g126
tp983
a(I2
g126
tp984
a(I3
g128
tp985
a(I0
g188
tp986
a(I1
g126
tp987
a(I2
g188
tp988
a(I3
g128
tp989
a(I0
g126
tp990
a(I1
g126
tp991
a(I2
g188
tp992
a(I3
g128
tp993
a(I0
g188
tp994
a(I1
g126
tp995
a(I2
g188
tp996
a(I3
g128
tp997
a(I0
g188
tp998
a(I1
g126
tp999
a(I2
g126
tp1000
a(I3
g128
tp1001
a(I0
g128
tp1002
a(I1
g126
tp1003
a(I2
g126
tp1004
a(I3
g128
tp1005
a(I0
g188
tp1006
a(I1
g126
tp1007
a(I2
g126
tp1008
a(I3
g128
tp1009
a(I0
g188
tp1010
a(I1
g184
tp1011
a(I2
g126
tp1012
a(I3
g128
tp1013
a(I0
g126
tp1014
a(I1
g184
tp1015
a(I2
g126
tp1016
a(I3
g128
tp1017
a(I0
g126
tp1018
a(I1
g128
tp1019
a(I2
g188
tp1020
a(I3
g128
tp1021
a(I0
g126
tp1022
a(I1
g128
tp1023
a(I2
g188
tp1024
a(I3
g128
tp1025
a(I0
g188
tp1026
a(I1
g184
tp1027
a(I2
g188
tp1028
a(I3
g126
tp1029
a(I0
g126
tp1030
a(I1
g184
tp1031
a(I2
g188
tp1032
a(I3
g126
tp1033
a(I0
g126
tp1034
a(I1
g126
tp1035
a(I2
g188
tp1036
a(I3
g126
tp1037
a(I0
g188
tp1038
a(I1
g126
tp1039
a(I2
g188
tp1040
a(I3
g126
tp1041
a(I0
g188
tp1042
a(I1
g184
tp1043
a(I2
g188
tp1044
a(I3
g126
tp1045
a(I0
g188
tp1046
a(I1
g184
tp1047
a(I2
g126
tp1048
a(I3
g126
tp1049
a(I0
g126
tp1050
a(I1
g184
tp1051
a(I2
g126
tp1052
a(I3
g126
tp1053
a(I0
g126
tp1054
a(I1
g184
tp1055
a(I2
g128
tp1056
a(I3
g126
tp1057
a(I0
g126
tp1058
a(I1
g128
tp1059
a(I2
g128
tp1060
a(I3
g126
tp1061
a(I0
g126
tp1062
a(I1
g184
tp1063
a(I2
g128
tp1064
a(I3
g126
tp1065
a(I0
g126
tp1066
a(I1
g184
tp1067
a(I2
g128
tp1068
a(I3
g126
tp1069
a(I0
g188
tp1070
a(I1
g126
tp1071
a(I2
g128
tp1072
a(I3
g126
tp1073
a(I0
g188
tp1074
a(I1
g184
tp1075
a(I2
g128
tp1076
a(I3
g126
tp1077
a(I0
g126
tp1078
a(I1
g184
tp1079
a(I2
g128
tp1080
a(I3
g126
tp1081
a(I0
g188
tp1082
a(I1
g128
tp1083
a(I2
g188
tp1084
a(I3
g126
tp1085
a(I0
g759
tp1086
a(I1
g128
tp1087
a(I2
g188
tp1088
a(I3
g184
tp1089
a(I0
g184
tp1090
a(I1
g128
tp1091
a(I2
g126
tp1092
a(I3
g184
tp1093
a(I0
g128
tp1094
a(I1
g128
tp1095
a(I2
g126
tp1096
a(I3
g128
tp1097
a(I0
g184
tp1098
a(I1
g184
tp1099
a(I2
g126
tp1100
a(I3
g128
tp1101
a(I0
g184
tp1102
a(I1
g128
tp1103
a(I2
g126
tp1104
a(I3
g184
tp1105
a(I0
g184
tp1106
a(I1
g184
tp1107
a(I2
g126
tp1108
a(I3
g184
tp1109
a(I0
g128
tp1110
a(I1
g184
tp1111
a(I2
g126
tp1112
a(I3
g128
tp1113
a(I0
g128
tp1114
a(I1
g184
tp1115
a(I2
g128
tp1116
a(I3
g184
tp1117
a(I0
g188
tp1118
a(I1
g128
tp1119
a(I2
g128
tp1120
a(I3
g184
tp1121
a(I0
g128
tp1122
a(I1
g128
tp1123
a(I2
g128
tp1124
a(I3
g128
tp1125
a(I0
g128
tp1126
a(I1
g128
tp1127
a(I2
g128
tp1128
a(I3
g128
tp1129
a(I0
g128
tp1130
a(I1
g128
tp1131
a(I2
g128
tp1132
a(I3
g128
tp1133
a(I0
g128
tp1134
a(I1
g128
tp1135
a(I2
g128
tp1136
a(I3
g128
tp1137
a(I0
g188
tp1138
a(I1
g184
tp1139
a(I2
g184
tp1140
a(I3
g128
tp1141
a(I0
g184
tp1142
a(I1
g184
tp1143
a(I2
g184
tp1144
a(I3
g128
tp1145
a(I0
g126
tp1146
a(I1
g128
tp1147
a(I2
g126
tp1148
a(I3
g128
tp1149
a(I0
g184
tp1150
a(I1
g128
tp1151
a(I2
g126
tp1152
a(I3
g184
tp1153
a(I0
g184
tp1154
a(I1
g184
tp1155
a(I2
g126
tp1156
a(I3
g184
tp1157
a(I0
g184
tp1158
a(I1
g128
tp1159
a(I2
g184
tp1160
a(I3
g126
tp1161
a(I0
g184
tp1162
a(I1
g128
tp1163
a(I2
g184
tp1164
a(I3
g126
tp1165
a(I0
g128
tp1166
a(I1
g128
tp1167
a(I2
g184
tp1168
a(I3
g126
tp1169
a(I0
g128
tp1170
a(I1
g184
tp1171
a(I2
g184
tp1172
a(I3
g184
tp1173
a(I0
g128
tp1174
a(I1
g184
tp1175
a(I2
g184
tp1176
a(I3
g184
tp1177
a(I0
g128
tp1178
a(I1
g126
tp1179
a(I2
g128
tp1180
a(I3
g184
tp1181
a(I0
g128
tp1182
a(I1
g184
tp1183
a(I2
g128
tp1184
a(I3
g184
tp1185
a(I0
g184
tp1186
a(I1
g184
tp1187
a(I2
g128
tp1188
a(I3
g184
tp1189
a(I0
g184
tp1190
a(I1
g128
tp1191
a(I2
g128
tp1192
a(I3
g128
tp1193
a(I0
g126
tp1194
a(I1
g184
tp1195
a(I2
g184
tp1196
a(I3
g128
tp1197
a(I0
g184
tp1198
a(I1
g184
tp1199
a(I2
g184
tp1200
a(I3
g128
tp1201
a(I0
g184
tp1202
a(I1
g184
tp1203
a(I2
g126
tp1204
a(I3
g128
tp1205
a(I0
g128
tp1206
a(I1
g184
tp1207
a(I2
g184
tp1208
a(I3
g128
tp1209
a(I0
g184
tp1210
a(I1
g126
tp1211
a(I2
g184
tp1212
a(I3
g128
tp1213
a(I0
g184
tp1214
a(I1
g126
tp1215
a(I2
g184
tp1216
a(I3
g184
tp1217
a(I0
g184
tp1218
a(I1
g184
tp1219
a(I2
g184
tp1220
a(I3
g128
tp1221
a(I0
g184
tp1222
a(I1
g184
tp1223
a(I2
g128
tp1224
a(I3
g128
tp1225
a(I0
g126
tp1226
a(I1
g128
tp1227
a(I2
g128
tp1228
a(I3
g184
tp1229
a(I0
g126
tp1230
a(I1
g128
tp1231
asS'length'
p1232
I1200
sS'agents'
p1233
(lp1234
(igame
Agent
p1235
(dp1236
S'index'
p1237
I0
sba(igame
Agent
p1238
(dp1239
g1237
I0
sba(igame
Agent
p1240
(dp1241
g1237
I0
sba(igame
Agent
p1242
(dp1243
g1237
I0
sbasS'redTeamName'
p1244
S'HAL9001'
p1245
s.