(dp1
S'layout'
p2
(ilayout
Layout
p3
(dp4
S'capsules'
p5
(lp6
(I3
I5
tp7
a(I28
I8
tp8
a(I5
I9
tp9
a(I30
I12
tp10
asS'numGhosts'
p11
I4
sS'food'
p12
(igame
Grid
p13
(dp14
S'CELLS_PER_INT'
p15
I30
sS'width'
p16
I34
sS'data'
p17
(lp18
(lp19
I00
aI00
aI00
aI00
aI00
aI00
aI00
aI00
aI00
aI00
aI00
aI00
aI00
aI00
aI00
aI00
aI00
aI00
aa(lp20
I00
aI00
aI00
aI00
aI00
aI00
aI01
aI00
aI00
aI00
aI00
aI00
aI00
aI00
aI00
aI01
aI00
aI00
aa(lp21
I00
aI00
aI00
aI00
aI00
aI00
aI00
aI00
aI00
aI01
aI00
aI00
aI00
aI00
aI00
aI00
aI00
aI00
aa(lp22
I00
aI00
aI00
aI00
aI00
aI00
aI00
aI00
aI00
aI01
aI00
aI00
aI00
aI00
aI00
aI01
aI00
aI00
aa(lp23
I00
aI00
aI00
aI00
aI00
aI00
aI00
aI00
aI00
aI00
aI00
aI00
aI00
aI00
aI00
aI00
aI00
aI00
aa(lp24
I00
aI00
aI00
aI00
aI00
aI00
aI00
aI00
aI00
aI00
aI00
aI00
aI00
aI00
aI00
aI00
aI00
aI00
aa(lp25
I00
aI00
aI00
aI00
aI00
aI00
aI01
aI00
aI01
aI00
aI00
aI00
aI00
aI00
aI00
aI00
aI00
aI00
aa(lp26
I00
aI00
aI00
aI00
aI00
aI00
aI00
aI00
aI00
aI00
aI00
aI00
aI00
aI00
aI00
aI00
aI00
aI00
aa(lp27
I00
aI01
aI00
aI01
aI01
aI01
aI00
aI01
aI01
aI00
aI00
aI00
aI00
aI00
aI00
aI01
aI00
aI00
aa(lp28
I00
aI00
aI00
aI00
aI00
aI00
aI00
aI00
aI00
aI00
aI00
aI00
aI00
aI00
aI00
aI00
aI00
aI00
aa(lp29
I00
aI00
aI01
aI00
aI00
aI00
aI00
aI00
aI00
aI00
aI00
aI01
aI00
aI00
aI00
aI01
aI00
aI00
aa(lp30
I00
aI00
aI00
aI00
aI00
aI00
aI00
aI00
aI00
aI00
aI00
aI01
aI00
aI00
aI00
aI01
aI00
aI00
aa(lp31
I00
aI01
aI00
aI00
aI00
aI01
aI00
aI01
aI00
aI01
aI00
aI00
aI00
aI00
aI00
aI00
aI00
aI00
aa(lp32
I00
aI00
aI00
aI00
aI00
aI00
aI00
aI00
aI00
aI00
aI00
aI01
aI00
aI00
aI00
aI00
aI00
aI00
aa(lp33
I00
aI00
aI00
aI01
aI00
aI00
aI00
aI01
aI01
aI01
aI00
aI01
aI00
aI00
aI00
aI00
aI01
aI00
aa(lp34
I00
aI00
aI00
aI00
aI00
aI00
aI00
aI00
aI00
aI00
aI00
aI00
aI00
aI00
aI00
aI00
aI00
aI00
aa(lp35
I00
aI00
aI00
aI00
aI00
aI00
aI00
aI00
aI00
aI00
aI00
aI00
aI00
aI00
aI00
aI00
aI00
aI00
aa(lp36
I00
aI00
aI00
aI00
aI00
aI00
aI00
aI00
aI00
aI00
aI00
aI00
aI00
aI00
aI00
aI00
aI00
aI00
aa(lp37
I00
aI00
aI00
aI00
aI00
aI00
aI00
aI00
aI00
aI00
aI00
aI00
aI00
aI00
aI00
aI00
aI00
aI00
aa(lp38
I00
aI01
aI00
aI00
aI00
aI00
aI01
aI00
aI01
aI01
aI01
aI00
aI00
aI00
aI01
aI00
aI00
aI00
aa(lp39
I00
aI00
aI00
aI00
aI00
aI00
aI01
aI00
aI00
aI00
aI00
aI00
aI00
aI00
aI00
aI00
aI00
aI00
aa(lp40
I00
aI00
aI00
aI00
aI00
aI00
aI00
aI00
aI01
aI00
aI01
aI00
aI01
aI00
aI00
aI00
aI01
aI00
aa(lp41
I00
aI00
aI01
aI00
aI00
aI00
aI01
aI00
aI00
aI00
aI00
aI00
aI00
aI00
aI00
aI00
aI00
aI00
aa(lp42
I00
aI00
aI01
aI00
aI00
aI00
aI01
aI00
aI00
aI00
aI00
aI00
aI00
aI00
aI00
aI01
aI00
aI00
aa(lp43
I00
aI00
aI00
aI00
aI00
aI00
aI00
aI00
aI00
aI00
aI00
aI00
aI00
aI00
aI00
aI00
aI00
aI00
aa(lp44
I00
aI00
aI01
aI00
aI00
aI00
aI00
aI00
aI00
aI01
aI01
aI00
aI01
aI01
aI01
aI00
aI01
aI00
aa(lp45
I00
aI00
aI00
aI00
aI00
aI00
aI00
aI00
aI00
aI00
aI00
aI00
aI00
aI00
aI00
aI00
aI00
aI00
aa(lp46
I00
aI00
aI00
aI00
aI00
aI00
aI00
aI00
aI00
aI01
aI00
aI01
aI00
aI00
aI00
aI00
aI00
aI00
aa(lp47
I00
aI00
aI00
aI00
aI00
aI00
aI00
aI00
aI00
aI00
aI00
aI00
aI00
aI00
aI00
aI00
aI00
aI00
aa(lp48
I00
aI00
aI00
aI00
aI00
aI00
aI00
aI00
aI00
aI00
aI00
aI00
aI00
aI00
aI00
aI00
aI00
aI00
aa(lp49
I00
aI00
aI01
aI00
aI00
aI00
aI00
aI00
aI01
aI00
aI00
aI00
aI00
aI00
aI00
aI00
aI00
aI00
aa(lp50
I00
aI00
aI00
aI00
aI00
aI00
aI00
aI00
aI01
aI00
aI00
aI00
aI00
aI00
aI00
aI00
aI00
aI00
aa(lp51
I00
aI00
aI01
aI00
aI00
aI00
aI00
aI00
aI00
aI00
aI00
aI01
aI00
aI00
aI00
aI00
aI00
aI00
aa(lp52
I00
aI00
aI00
aI00
aI00
aI00
aI00
aI00
aI00
aI00
aI00
aI00
aI00
aI00
aI00
aI00
aI00
aI00
aasS'height'
p53
I18
sbsS'agentPositions'
p54
(lp55
(I00
(I1
I2
tp56
tp57
a(I00
(I32
I15
tp58
tp59
a(I00
(I1
I1
tp60
tp61
a(I00
(I32
I16
tp62
tp63
asg53
I18
sg16
I34
sS'walls'
p64
(igame
Grid
p65
(dp66
g15
I30
sg16
I34
sg17
(lp67
(lp68
I01
aI01
aI01
aI01
aI01
aI01
aI01
aI01
aI01
aI01
aI01
aI01
aI01
aI01
aI01
aI01
aI01
aI01
aa(lp69
I01
aI00
aI00
aI00
aI00
aI00
aI00
aI00
aI01
aI00
aI00
aI00
aI00
aI00
aI00
aI00
aI00
aI01
aa(lp70
I01
aI01
aI01
aI00
aI01
aI01
aI01
aI00
aI00
aI00
aI01
aI01
aI01
aI01
aI01
aI01
aI00
aI01
aa(lp71
I01
aI00
aI00
aI00
aI00
aI00
aI00
aI00
aI01
aI00
aI00
aI00
aI00
aI00
aI00
aI00
aI00
aI01
aa(lp72
I01
aI00
aI01
aI01
aI01
aI01
aI01
aI01
aI01
aI00
aI00
aI01
aI01
aI01
aI01
aI01
aI01
aI01
aa(lp73
I01
aI00
aI00
aI01
aI00
aI00
aI00
aI00
aI00
aI00
aI00
aI00
aI00
aI00
aI01
aI00
aI00
aI01
aa(lp74
I01
aI00
aI00
aI01
aI00
aI01
aI00
aI01
aI00
aI00
aI01
aI00
aI01
aI00
aI00
aI00
aI00
aI01
aa(lp75
I01
aI01
aI00
aI01
aI00
aI01
aI01
aI01
aI01
aI01
aI01
aI00
aI01
aI00
aI01
aI01
aI00
aI01
aa(lp76
I01
aI00
aI00
aI00
aI00
aI00
aI01
aI00
aI00
aI00
aI00
aI00
aI01
aI00
aI01
aI00
aI00
aI01
aa(lp77
I01
aI00
aI01
aI01
aI00
aI01
aI01
aI01
aI01
aI00
aI01
aI01
aI01
aI00
aI01
aI01
aI00
aI01
aa(lp78
I01
aI00
aI00
aI01
aI00
aI00
aI00
aI00
aI01
aI00
aI01
aI00
aI01
aI00
aI01
aI00
aI00
aI01
aa(lp79
I01
aI01
aI00
aI01
aI00
aI01
aI01
aI00
aI00
aI00
aI01
aI00
aI01
aI00
aI01
aI00
aI00
aI01
aa(lp80
I01
aI00
aI00
aI00
aI00
aI00
aI01
aI00
aI01
aI00
aI01
aI00
aI00
aI00
aI01
aI01
aI00
aI01
aa(lp81
I01
aI01
aI01
aI00
aI01
aI01
aI01
aI01
aI01
aI01
aI01
aI00
aI01
aI00
aI01
aI00
aI00
aI01
aa(lp82
I01
aI00
aI00
aI00
aI00
aI00
aI00
aI00
aI00
aI00
aI01
aI00
aI01
aI00
aI01
aI00
aI00
aI01
aa(lp83
I01
aI00
aI00
aI00
aI00
aI00
aI01
aI01
aI01
aI01
aI01
aI01
aI01
aI00
aI01
aI01
aI01
aI01
aa(lp84
I01
aI00
aI00
aI01
aI00
aI00
aI00
aI00
aI00
aI00
aI01
aI00
aI00
aI00
aI00
aI00
aI00
aI01
aa(lp85
I01
aI00
aI00
aI00
aI00
aI00
aI00
aI01
aI00
aI00
aI00
aI00
aI00
aI00
aI01
aI00
aI00
aI01
aa(lp86
I01
aI01
aI01
aI01
aI00
aI01
aI01
aI01
aI01
aI01
aI01
aI01
aI00
aI00
aI00
aI00
aI00
aI01
aa(lp87
I01
aI00
aI00
aI01
aI00
aI01
aI00
aI01
aI00
aI00
aI00
aI00
aI00
aI00
aI00
aI00
aI00
aI01
aa(lp88
I01
aI00
aI00
aI01
aI00
aI01
aI00
aI01
aI01
aI01
aI01
aI01
aI01
aI01
aI00
aI01
aI01
aI01
aa(lp89
I01
aI00
aI01
aI01
aI00
aI00
aI00
aI01
aI00
aI01
aI00
aI01
aI00
aI00
aI00
aI00
aI00
aI01
aa(lp90
I01
aI00
aI00
aI01
aI00
aI01
aI00
aI01
aI00
aI00
aI00
aI01
aI01
aI00
aI01
aI00
aI01
aI01
aa(lp91
I01
aI00
aI00
aI01
aI00
aI01
aI00
aI01
aI00
aI01
aI00
aI00
aI00
aI00
aI01
aI00
aI00
aI01
aa(lp92
I01
aI00
aI01
aI01
aI00
aI01
aI01
aI01
aI00
aI01
aI01
aI01
aI01
aI00
aI01
aI01
aI00
aI01
aa(lp93
I01
aI00
aI00
aI01
aI00
aI01
aI00
aI00
aI00
aI00
aI00
aI01
aI00
aI00
aI00
aI00
aI00
aI01
aa(lp94
I01
aI00
aI01
aI01
aI00
aI01
aI00
aI01
aI01
aI01
aI01
aI01
aI01
aI00
aI01
aI00
aI01
aI01
aa(lp95
I01
aI00
aI00
aI00
aI00
aI01
aI00
aI01
aI00
aI00
aI01
aI00
aI01
aI00
aI01
aI00
aI00
aI01
aa(lp96
I01
aI00
aI00
aI01
aI00
aI00
aI00
aI00
aI00
aI00
aI00
aI00
aI00
aI00
aI01
aI00
aI00
aI01
aa(lp97
I01
aI01
aI01
aI01
aI01
aI01
aI01
aI00
aI00
aI01
aI01
aI01
aI01
aI01
aI01
aI01
aI00
aI01
aa(lp98
I01
aI00
aI00
aI00
aI00
aI00
aI00
aI00
aI00
aI01
aI00
aI00
aI00
aI00
aI00
aI00
aI00
aI01
aa(lp99
I01
aI00
aI01
aI01
aI01
aI01
aI01
aI01
aI00
aI00
aI00
aI01
aI01
aI01
aI00
aI01
aI01
aI01
aa(lp100
I01
aI00
aI00
aI00
aI00
aI00
aI00
aI00
aI00
aI01
aI00
aI00
aI00
aI00
aI00
aI00
aI00
aI01
aa(lp101
I01
aI01
aI01
aI01
aI01
aI01
aI01
aI01
aI01
aI01
aI01
aI01
aI01
aI01
aI01
aI01
aI01
aI01
aasg53
I18
sbsS'layoutText'
p102
(lp103
S'%%%%%%%%%%%%%%%%%%%%%%%%%%%%%%%%%%'
p104
aS'%   %         .%    %.%  .%    %4%'
p105
aS'%.%.%  %.%..%  %    %  .%    % %2%'
p106
aS'% % %% %%%%%%%%% % .  %%%.%%%%   %'
p107
aS'% % %               %    .   % % %'
p108
aS'% % % %%%%%% %%%    %.% %.%% %o% %'
p109
aS'% % %    %.. ..%  % %%% %%%. % %.%'
p110
aS'% %   %% %%%%%%%% %.%.  %.%% %   %'
p111
aS'% .. o %    .%.%  %.%% %%.%. %% %%'
p112
aS'%% %% .%.%% %%.%  %.%.    % o .. %'
p113
aS'%   % %%.%  .%.% %%%%%%%% %%   % %'
p114
aS'%.% % .%%% %%% %  %.. ..%    % % %'
p115
aS'% %o% %%.% %.%    %%% %%%%%% % % %'
p116
aS'% % %   .    %               % % %'
p117
aS'%   %%%%.%%%  . % %%%%%%%%% %% % %'
p118
aS'%1% %    %.  %    %  %..%.%  %.%.%'
p119
aS'%3%    %.  %.%    %.         %   %'
p120
aS'%%%%%%%%%%%%%%%%%%%%%%%%%%%%%%%%%%'
p121
asbsS'blueTeamName'
p122
S'TedCruzSuperPAC'
p123
sS'actions'
p124
(lp125
(I1
S'South'
p126
tp127
a(I2
S'North'
p128
tp129
a(I3
g126
tp130
a(I0
g128
tp131
a(I1
g126
tp132
a(I2
g128
tp133
a(I3
g126
tp134
a(I0
g128
tp135
a(I1
g126
tp136
a(I2
S'East'
p137
tp138
a(I3
g126
tp139
a(I0
g128
tp140
a(I1
g126
tp141
a(I2
g137
tp142
a(I3
g126
tp143
a(I0
g128
tp144
a(I1
g126
tp145
a(I2
g126
tp146
a(I3
g126
tp147
a(I0
g128
tp148
a(I1
S'West'
p149
tp150
a(I2
g126
tp151
a(I3
g126
tp152
a(I0
g137
tp153
a(I1
g126
tp154
a(I2
g137
tp155
a(I3
g149
tp156
a(I0
g128
tp157
a(I1
g126
tp158
a(I2
g137
tp159
a(I3
g126
tp160
a(I0
g128
tp161
a(I1
g149
tp162
a(I2
g137
tp163
a(I3
g126
tp164
a(I0
g137
tp165
a(I1
g149
tp166
a(I2
g128
tp167
a(I3
g149
tp168
a(I0
g128
tp169
a(I1
g149
tp170
a(I2
g137
tp171
a(I3
g149
tp172
a(I0
g137
tp173
a(I1
g126
tp174
a(I2
g137
tp175
a(I3
g149
tp176
a(I0
g137
tp177
a(I1
g126
tp178
a(I2
g128
tp179
a(I3
g126
tp180
a(I0
g128
tp181
a(I1
g126
tp182
a(I2
g128
tp183
a(I3
g126
tp184
a(I0
g128
tp185
a(I1
g126
tp186
a(I2
g137
tp187
a(I3
g126
tp188
a(I0
g128
tp189
a(I1
g149
tp190
a(I2
g137
tp191
a(I3
g126
tp192
a(I0
g137
tp193
a(I1
g149
tp194
a(I2
g137
tp195
a(I3
g149
tp196
a(I0
g137
tp197
a(I1
g149
tp198
a(I2
g137
tp199
a(I3
g149
tp200
a(I0
g137
tp201
a(I1
g149
tp202
a(I2
g126
tp203
a(I3
g149
tp204
a(I0
g137
tp205
a(I1
g149
tp206
a(I2
g137
tp207
a(I3
g149
tp208
a(I0
g137
tp209
a(I1
g149
tp210
a(I2
g137
tp211
a(I3
g149
tp212
a(I0
g137
tp213
a(I1
g149
tp214
a(I2
g137
tp215
a(I3
g149
tp216
a(I0
g137
tp217
a(I1
g149
tp218
a(I2
g128
tp219
a(I3
g149
tp220
a(I0
g137
tp221
a(I1
g149
tp222
a(I2
g137
tp223
a(I3
g149
tp224
a(I0
g137
tp225
a(I1
g149
tp226
a(I2
g149
tp227
a(I3
g149
tp228
a(I0
g137
tp229
a(I1
g149
tp230
a(I2
g126
tp231
a(I3
g149
tp232
a(I0
g137
tp233
a(I1
g149
tp234
a(I2
g149
tp235
a(I3
g149
tp236
a(I0
g137
tp237
a(I1
g149
tp238
a(I2
g149
tp239
a(I3
g149
tp240
a(I0
g126
tp241
a(I1
g149
tp242
a(I2
g137
tp243
a(I3
g149
tp244
a(I0
g126
tp245
a(I1
g128
tp246
a(I2
g128
tp247
a(I3
g126
tp248
a(I0
g126
tp249
a(I1
g128
tp250
a(I2
g137
tp251
a(I3
g149
tp252
a(I0
g126
tp253
a(I1
g128
tp254
a(I2
g126
tp255
a(I3
g149
tp256
a(I0
g126
tp257
a(I1
g128
tp258
a(I2
g149
tp259
a(I3
g149
tp260
a(I0
g149
tp261
a(I1
g128
tp262
a(I2
g149
tp263
a(I3
g126
tp264
a(I0
g126
tp265
a(I1
g126
tp266
a(I2
g149
tp267
a(I3
g149
tp268
a(I0
g126
tp269
a(I1
g126
tp270
a(I2
g126
tp271
a(I3
g149
tp272
a(I0
g126
tp273
a(I1
g128
tp274
a(I2
g149
tp275
a(I3
g126
tp276
a(I0
g149
tp277
a(I1
g128
tp278
a(I2
g149
tp279
a(I3
g149
tp280
a(I0
g149
tp281
a(I1
g126
tp282
a(I2
g126
tp283
a(I3
g149
tp284
a(I0
g128
tp285
a(I1
g126
tp286
a(I2
g149
tp287
a(I3
g128
tp288
a(I0
g128
tp289
a(I1
g126
tp290
a(I2
g149
tp291
a(I3
g128
tp292
a(I0
g126
tp293
a(I1
g149
tp294
a(I2
g128
tp295
a(I3
g128
tp296
a(I0
g126
tp297
a(I1
g149
tp298
a(I2
g128
tp299
a(I3
g128
tp300
a(I0
g126
tp301
a(I1
g128
tp302
a(I2
g128
tp303
a(I3
g126
tp304
a(I0
g128
tp305
a(I1
g128
tp306
a(I2
g137
tp307
a(I3
g126
tp308
a(I0
g137
tp309
a(I1
g149
tp310
a(I2
g137
tp311
a(I3
g126
tp312
a(I0
g137
tp313
a(I1
g149
tp314
a(I2
g137
tp315
a(I3
g149
tp316
a(I0
g128
tp317
a(I1
g149
tp318
a(I2
g137
tp319
a(I3
g149
tp320
a(I0
g128
tp321
a(I1
g126
tp322
a(I2
g126
tp323
a(I3
g128
tp324
a(I0
g128
tp325
a(I1
g149
tp326
a(I2
g137
tp327
a(I3
g128
tp328
a(I0
g128
tp329
a(I1
g149
tp330
a(I2
g137
tp331
a(I3
g149
tp332
a(I0
g137
tp333
a(I1
g128
tp334
a(I2
g128
tp335
a(I3
g149
tp336
a(I0
g128
tp337
a(I1
g149
tp338
a(I2
g137
tp339
a(I3
g149
tp340
a(I0
g128
tp341
a(I1
g149
tp342
a(I2
g137
tp343
a(I3
g126
tp344
a(I0
g128
tp345
a(I1
g126
tp346
a(I2
g137
tp347
a(I3
g149
tp348
a(I0
g128
tp349
a(I1
g149
tp350
a(I2
g137
tp351
a(I3
g149
tp352
a(I0
g137
tp353
a(I1
g149
tp354
a(I2
g137
tp355
a(I3
g128
tp356
a(I0
g137
tp357
a(I1
g126
tp358
a(I2
g137
tp359
a(I3
g149
tp360
a(I0
S'Stop'
p361
tp362
a(I1
g149
tp363
a(I2
g137
tp364
a(I3
g149
tp365
a(I0
g149
tp366
a(I1
g149
tp367
a(I2
g128
tp368
a(I3
g126
tp369
a(I0
g149
tp370
a(I1
g149
tp371
a(I2
g128
tp372
a(I3
g149
tp373
a(I0
g149
tp374
a(I1
g126
tp375
a(I2
g137
tp376
a(I3
g149
tp377
a(I0
g126
tp378
a(I1
g149
tp379
a(I2
g137
tp380
a(I3
g126
tp381
a(I0
g126
tp382
a(I1
g149
tp383
a(I2
g149
tp384
a(I3
g149
tp385
a(I0
g128
tp386
a(I1
g149
tp387
a(I2
g149
tp388
a(I3
g149
tp389
a(I0
g137
tp390
a(I1
g149
tp391
a(I2
g149
tp392
a(I3
g149
tp393
a(I0
g149
tp394
a(I1
g149
tp395
a(I2
g149
tp396
a(I3
g126
tp397
a(I0
g361
tp398
a(I1
g149
tp399
a(I2
g137
tp400
a(I3
g149
tp401
a(I0
g126
tp402
a(I1
g126
tp403
a(I2
g137
tp404
a(I3
g149
tp405
a(I0
g128
tp406
a(I1
g126
tp407
a(I2
g126
tp408
a(I3
g149
tp409
a(I0
g128
tp410
a(I1
g149
tp411
a(I2
g126
tp412
a(I3
g149
tp413
a(I0
g149
tp414
a(I1
g137
tp415
a(I2
g149
tp416
a(I3
g149
tp417
a(I0
g149
tp418
a(I1
g137
tp419
a(I2
g149
tp420
a(I3
g149
tp421
a(I0
g149
tp422
a(I1
g137
tp423
a(I2
g149
tp424
a(I3
g126
tp425
a(I0
g149
tp426
a(I1
g149
tp427
a(I2
g149
tp428
a(I3
g126
tp429
a(I0
g126
tp430
a(I1
g149
tp431
a(I2
g149
tp432
a(I3
g149
tp433
a(I0
g126
tp434
a(I1
g126
tp435
a(I2
g128
tp436
a(I3
g149
tp437
a(I0
g149
tp438
a(I1
g126
tp439
a(I2
g128
tp440
a(I3
g137
tp441
a(I0
g137
tp442
a(I1
g126
tp443
a(I2
g126
tp444
a(I3
g126
tp445
a(I0
g128
tp446
a(I1
g126
tp447
a(I2
g137
tp448
a(I3
g126
tp449
a(I0
g128
tp450
a(I1
g126
tp451
a(I2
g126
tp452
a(I3
g126
tp453
a(I0
g137
tp454
a(I1
g149
tp455
a(I2
g137
tp456
a(I3
g126
tp457
a(I0
g137
tp458
a(I1
g126
tp459
a(I2
g137
tp460
a(I3
g126
tp461
a(I0
g137
tp462
a(I1
g126
tp463
a(I2
g137
tp464
a(I3
g126
tp465
a(I0
g137
tp466
a(I1
g149
tp467
a(I2
g137
tp468
a(I3
g149
tp469
a(I0
g137
tp470
a(I1
g149
tp471
a(I2
g137
tp472
a(I3
g126
tp473
a(I0
g137
tp474
a(I1
g149
tp475
a(I2
g137
tp476
a(I3
g126
tp477
a(I0
g137
tp478
a(I1
g126
tp479
a(I2
g137
tp480
a(I3
g149
tp481
a(I0
g128
tp482
a(I1
g126
tp483
a(I2
g137
tp484
a(I3
g149
tp485
a(I0
g126
tp486
a(I1
g126
tp487
a(I2
g137
tp488
a(I3
g149
tp489
a(I0
g126
tp490
a(I1
g126
tp491
a(I2
g149
tp492
a(I3
g126
tp493
a(I0
g126
tp494
a(I1
g149
tp495
a(I2
g149
tp496
a(I3
g126
tp497
a(I0
g126
tp498
a(I1
g149
tp499
a(I2
g149
tp500
a(I3
g126
tp501
a(I0
g126
tp502
a(I1
g149
tp503
a(I2
g149
tp504
a(I3
g126
tp505
a(I0
g126
tp506
a(I1
g149
tp507
a(I2
g149
tp508
a(I3
g149
tp509
a(I0
g128
tp510
a(I1
g149
tp511
a(I2
g149
tp512
a(I3
g149
tp513
a(I0
g128
tp514
a(I1
g149
tp515
a(I2
g149
tp516
a(I3
g149
tp517
a(I0
g128
tp518
a(I1
g149
tp519
a(I2
g149
tp520
a(I3
g149
tp521
a(I0
g128
tp522
a(I1
g149
tp523
a(I2
g149
tp524
a(I3
g149
tp525
a(I0
g128
tp526
a(I1
g149
tp527
a(I2
g128
tp528
a(I3
g149
tp529
a(I0
g128
tp530
a(I1
g149
tp531
a(I2
g149
tp532
a(I3
g149
tp533
a(I0
g137
tp534
a(I1
g149
tp535
a(I2
g149
tp536
a(I3
g149
tp537
a(I0
g137
tp538
a(I1
g149
tp539
a(I2
g137
tp540
a(I3
g149
tp541
a(I0
g149
tp542
a(I1
g149
tp543
a(I2
g137
tp544
a(I3
g149
tp545
a(I0
g149
tp546
a(I1
g149
tp547
a(I2
g149
tp548
a(I3
g149
tp549
a(I0
g149
tp550
a(I1
g126
tp551
a(I2
g149
tp552
a(I3
g149
tp553
a(I0
g126
tp554
a(I1
g149
tp555
a(I2
g137
tp556
a(I3
g149
tp557
a(I0
g149
tp558
a(I1
g149
tp559
a(I2
g126
tp560
a(I3
g149
tp561
a(I0
g126
tp562
a(I1
g128
tp563
a(I2
g149
tp564
a(I3
g126
tp565
a(I0
g126
tp566
a(I1
g128
tp567
a(I2
g149
tp568
a(I3
g149
tp569
a(I0
g126
tp570
a(I1
g126
tp571
a(I2
g126
tp572
a(I3
g149
tp573
a(I0
g126
tp574
a(I1
g149
tp575
a(I2
g149
tp576
a(I3
g126
tp577
a(I0
g149
tp578
a(I1
g149
tp579
a(I2
g149
tp580
a(I3
g126
tp581
a(I0
g126
tp582
a(I1
g128
tp583
a(I2
g126
tp584
a(I3
g128
tp585
a(I0
g126
tp586
a(I1
g128
tp587
a(I2
g128
tp588
a(I3
g126
tp589
a(I0
g126
tp590
a(I1
g128
tp591
a(I2
g137
tp592
a(I3
g126
tp593
a(I0
g128
tp594
a(I1
g137
tp595
a(I2
g149
tp596
a(I3
g149
tp597
a(I0
g126
tp598
a(I1
g137
tp599
a(I2
g128
tp600
a(I3
g149
tp601
a(I0
g126
tp602
a(I1
g149
tp603
a(I2
g149
tp604
a(I3
g128
tp605
a(I0
g149
tp606
a(I1
g128
tp607
a(I2
g149
tp608
a(I3
g128
tp609
a(I0
g149
tp610
a(I1
g128
tp611
a(I2
g137
tp612
a(I3
g149
tp613
a(I0
g126
tp614
a(I1
g137
tp615
a(I2
g137
tp616
a(I3
g149
tp617
a(I0
g126
tp618
a(I1
g149
tp619
a(I2
g126
tp620
a(I3
g149
tp621
a(I0
g137
tp622
a(I1
g149
tp623
a(I2
g137
tp624
a(I3
g126
tp625
a(I0
g128
tp626
a(I1
g149
tp627
a(I2
g137
tp628
a(I3
g149
tp629
a(I0
g128
tp630
a(I1
g149
tp631
a(I2
g128
tp632
a(I3
g149
tp633
a(I0
g137
tp634
a(I1
g126
tp635
a(I2
g137
tp636
a(I3
g128
tp637
a(I0
g128
tp638
a(I1
g126
tp639
a(I2
g137
tp640
a(I3
g149
tp641
a(I0
g128
tp642
a(I1
g128
tp643
a(I2
g137
tp644
a(I3
g149
tp645
a(I0
g128
tp646
a(I1
g128
tp647
a(I2
g137
tp648
a(I3
g126
tp649
a(I0
g128
tp650
a(I1
g128
tp651
a(I2
g137
tp652
a(I3
g149
tp653
a(I0
g137
tp654
a(I1
g128
tp655
a(I2
g137
tp656
a(I3
g149
tp657
a(I0
g128
tp658
a(I1
g149
tp659
a(I2
g137
tp660
a(I3
g126
tp661
a(I0
g128
tp662
a(I1
g149
tp663
a(I2
g137
tp664
a(I3
g149
tp665
a(I0
g128
tp666
a(I1
g149
tp667
a(I2
g137
tp668
a(I3
g149
tp669
a(I0
g128
tp670
a(I1
g126
tp671
a(I2
g137
tp672
a(I3
g149
tp673
a(I0
g149
tp674
a(I1
g149
tp675
a(I2
g137
tp676
a(I3
g126
tp677
a(I0
g128
tp678
a(I1
g149
tp679
a(I2
g137
tp680
a(I3
g149
tp681
a(I0
g128
tp682
a(I1
g126
tp683
a(I2
g137
tp684
a(I3
g149
tp685
a(I0
g126
tp686
a(I1
g149
tp687
a(I2
g149
tp688
a(I3
g149
tp689
a(I0
g126
tp690
a(I1
g126
tp691
a(I2
g149
tp692
a(I3
g149
tp693
a(I0
g149
tp694
a(I1
g126
tp695
a(I2
g149
tp696
a(I3
g149
tp697
a(I0
g149
tp698
a(I1
g149
tp699
a(I2
g149
tp700
a(I3
g149
tp701
a(I0
g149
tp702
a(I1
g126
tp703
a(I2
g149
tp704
a(I3
g149
tp705
a(I0
g149
tp706
a(I1
g128
tp707
a(I2
g149
tp708
a(I3
g149
tp709
a(I0
g149
tp710
a(I1
g137
tp711
a(I2
g149
tp712
a(I3
g149
tp713
a(I0
g149
tp714
a(I1
g128
tp715
a(I2
g149
tp716
a(I3
g149
tp717
a(I0
g149
tp718
a(I1
g128
tp719
a(I2
g149
tp720
a(I3
g149
tp721
a(I0
g149
tp722
a(I1
g137
tp723
a(I2
g149
tp724
a(I3
g149
tp725
a(I0
g149
tp726
a(I1
g137
tp727
a(I2
g128
tp728
a(I3
g128
tp729
a(I0
g149
tp730
a(I1
g137
tp731
a(I2
g126
tp732
a(I3
g128
tp733
a(I0
g137
tp734
a(I1
g137
tp735
a(I2
g137
tp736
a(I3
g128
tp737
a(I0
g137
tp738
a(I1
g126
tp739
a(I2
g137
tp740
a(I3
g137
tp741
a(I0
g137
tp742
a(I1
g149
tp743
a(I2
g137
tp744
a(I3
g137
tp745
a(I0
g137
tp746
a(I1
g126
tp747
a(I2
g137
tp748
a(I3
g137
tp749
a(I0
g137
tp750
a(I1
g126
tp751
a(I2
g137
tp752
a(I3
g137
tp753
a(I0
g137
tp754
a(I1
g137
tp755
a(I2
g137
tp756
a(I3
g126
tp757
a(I0
g137
tp758
a(I1
g149
tp759
a(I2
g137
tp760
a(I3
g137
tp761
a(I0
g137
tp762
a(I1
g128
tp763
a(I2
g137
tp764
a(I3
g128
tp765
a(I0
g137
tp766
a(I1
g128
tp767
a(I2
g137
tp768
a(I3
g137
tp769
a(I0
g137
tp770
a(I1
g128
tp771
a(I2
g137
tp772
a(I3
g137
tp773
a(I0
g137
tp774
a(I1
g149
tp775
a(I2
g126
tp776
a(I3
g137
tp777
a(I0
g137
tp778
a(I1
g149
tp779
a(I2
g126
tp780
a(I3
g149
tp781
a(I0
g137
tp782
a(I1
g128
tp783
a(I2
g126
tp784
a(I3
g149
tp785
a(I0
g128
tp786
a(I1
g128
tp787
a(I2
g149
tp788
a(I3
g149
tp789
a(I0
g137
tp790
a(I1
g128
tp791
a(I2
g149
tp792
a(I3
g149
tp793
a(I0
g137
tp794
a(I1
g128
tp795
a(I2
g128
tp796
a(I3
g149
tp797
a(I0
g126
tp798
a(I1
g128
tp799
a(I2
g126
tp800
a(I3
g149
tp801
a(I0
g126
tp802
a(I1
g128
tp803
asS'length'
p804
I1200
sS'agents'
p805
(lp806
(igame
Agent
p807
(dp808
S'index'
p809
I0
sba(igame
Agent
p810
(dp811
g809
I0
sba(igame
Agent
p812
(dp813
g809
I0
sba(igame
Agent
p814
(dp815
g809
I0
sbasS'redTeamName'
p816
S'HAL9001'
p817
s.