(dp1
S'layout'
p2
(ilayout
Layout
p3
(dp4
S'capsules'
p5
(lp6
(I25
I3
tp7
a(I22
I5
tp8
a(I11
I12
tp9
a(I8
I14
tp10
asS'numGhosts'
p11
I4
sS'food'
p12
(igame
Grid
p13
(dp14
S'CELLS_PER_INT'
p15
I30
sS'width'
p16
I34
sS'data'
p17
(lp18
(lp19
I00
aI00
aI00
aI00
aI00
aI00
aI00
aI00
aI00
aI00
aI00
aI00
aI00
aI00
aI00
aI00
aI00
aI00
aa(lp20
I00
aI00
aI00
aI00
aI00
aI00
aI00
aI00
aI00
aI00
aI00
aI00
aI00
aI00
aI00
aI00
aI00
aI00
aa(lp21
I00
aI00
aI00
aI00
aI00
aI00
aI00
aI00
aI00
aI00
aI00
aI00
aI00
aI00
aI00
aI00
aI00
aI00
aa(lp22
I00
aI00
aI00
aI00
aI00
aI00
aI00
aI00
aI00
aI01
aI01
aI00
aI01
aI00
aI01
aI00
aI01
aI00
aa(lp23
I00
aI00
aI00
aI00
aI00
aI00
aI00
aI00
aI00
aI00
aI00
aI00
aI01
aI00
aI00
aI00
aI00
aI00
aa(lp24
I00
aI00
aI00
aI00
aI00
aI00
aI00
aI00
aI00
aI00
aI01
aI00
aI00
aI00
aI00
aI00
aI00
aI00
aa(lp25
I00
aI00
aI00
aI01
aI00
aI00
aI00
aI01
aI01
aI00
aI00
aI00
aI00
aI00
aI00
aI01
aI00
aI00
aa(lp26
I00
aI00
aI00
aI01
aI00
aI00
aI00
aI00
aI00
aI01
aI00
aI00
aI00
aI00
aI00
aI00
aI00
aI00
aa(lp27
I00
aI00
aI00
aI00
aI00
aI00
aI00
aI00
aI00
aI00
aI00
aI00
aI01
aI00
aI00
aI00
aI00
aI00
aa(lp28
I00
aI01
aI00
aI00
aI00
aI00
aI00
aI01
aI00
aI00
aI01
aI00
aI00
aI00
aI01
aI00
aI01
aI00
aa(lp29
I00
aI01
aI00
aI00
aI01
aI00
aI01
aI01
aI00
aI00
aI00
aI00
aI00
aI00
aI01
aI00
aI01
aI00
aa(lp30
I00
aI00
aI00
aI00
aI00
aI00
aI00
aI00
aI00
aI00
aI00
aI00
aI00
aI00
aI00
aI00
aI00
aI00
aa(lp31
I00
aI00
aI00
aI00
aI00
aI00
aI00
aI00
aI00
aI00
aI01
aI00
aI00
aI00
aI00
aI01
aI01
aI00
aa(lp32
I00
aI00
aI00
aI00
aI00
aI00
aI00
aI00
aI00
aI00
aI00
aI00
aI00
aI00
aI00
aI00
aI00
aI00
aa(lp33
I00
aI00
aI00
aI00
aI00
aI00
aI00
aI00
aI00
aI00
aI00
aI00
aI00
aI00
aI00
aI01
aI01
aI00
aa(lp34
I00
aI00
aI00
aI00
aI00
aI00
aI00
aI00
aI00
aI00
aI00
aI00
aI00
aI00
aI00
aI00
aI00
aI00
aa(lp35
I00
aI00
aI00
aI00
aI00
aI00
aI00
aI00
aI00
aI00
aI00
aI00
aI00
aI00
aI00
aI00
aI00
aI00
aa(lp36
I00
aI00
aI00
aI00
aI00
aI00
aI00
aI00
aI00
aI00
aI00
aI00
aI00
aI00
aI00
aI00
aI00
aI00
aa(lp37
I00
aI00
aI00
aI00
aI00
aI00
aI00
aI00
aI00
aI00
aI00
aI00
aI00
aI00
aI00
aI00
aI00
aI00
aa(lp38
I00
aI01
aI01
aI00
aI00
aI00
aI00
aI00
aI00
aI00
aI00
aI00
aI00
aI00
aI00
aI00
aI00
aI00
aa(lp39
I00
aI00
aI00
aI00
aI00
aI00
aI00
aI00
aI00
aI00
aI00
aI00
aI00
aI00
aI00
aI00
aI00
aI00
aa(lp40
I00
aI01
aI01
aI00
aI00
aI00
aI00
aI01
aI00
aI00
aI00
aI00
aI00
aI00
aI00
aI00
aI00
aI00
aa(lp41
I00
aI00
aI00
aI00
aI00
aI00
aI00
aI00
aI00
aI00
aI00
aI00
aI00
aI00
aI00
aI00
aI00
aI00
aa(lp42
I00
aI01
aI00
aI01
aI00
aI00
aI00
aI00
aI00
aI00
aI01
aI01
aI00
aI01
aI00
aI00
aI01
aI00
aa(lp43
I00
aI01
aI00
aI01
aI00
aI00
aI00
aI01
aI00
aI00
aI01
aI00
aI00
aI00
aI00
aI00
aI01
aI00
aa(lp44
I00
aI00
aI00
aI00
aI00
aI01
aI00
aI00
aI00
aI00
aI00
aI00
aI00
aI00
aI00
aI00
aI00
aI00
aa(lp45
I00
aI00
aI00
aI00
aI00
aI00
aI00
aI00
aI01
aI00
aI00
aI00
aI00
aI00
aI01
aI00
aI00
aI00
aa(lp46
I00
aI00
aI01
aI00
aI00
aI00
aI00
aI00
aI00
aI01
aI01
aI00
aI00
aI00
aI01
aI00
aI00
aI00
aa(lp47
I00
aI00
aI00
aI00
aI00
aI00
aI00
aI01
aI00
aI00
aI00
aI00
aI00
aI00
aI00
aI00
aI00
aI00
aa(lp48
I00
aI00
aI00
aI00
aI00
aI01
aI00
aI00
aI00
aI00
aI00
aI00
aI00
aI00
aI00
aI00
aI00
aI00
aa(lp49
I00
aI01
aI00
aI01
aI00
aI01
aI00
aI01
aI01
aI00
aI00
aI00
aI00
aI00
aI00
aI00
aI00
aI00
aa(lp50
I00
aI00
aI00
aI00
aI00
aI00
aI00
aI00
aI00
aI00
aI00
aI00
aI00
aI00
aI00
aI00
aI00
aI00
aa(lp51
I00
aI00
aI00
aI00
aI00
aI00
aI00
aI00
aI00
aI00
aI00
aI00
aI00
aI00
aI00
aI00
aI00
aI00
aa(lp52
I00
aI00
aI00
aI00
aI00
aI00
aI00
aI00
aI00
aI00
aI00
aI00
aI00
aI00
aI00
aI00
aI00
aI00
aasS'height'
p53
I18
sbsS'agentPositions'
p54
(lp55
(I00
(I1
I2
tp56
tp57
a(I00
(I32
I15
tp58
tp59
a(I00
(I1
I1
tp60
tp61
a(I00
(I32
I16
tp62
tp63
asg53
I18
sg16
I34
sS'walls'
p64
(igame
Grid
p65
(dp66
g15
I30
sg16
I34
sg17
(lp67
(lp68
I01
aI01
aI01
aI01
aI01
aI01
aI01
aI01
aI01
aI01
aI01
aI01
aI01
aI01
aI01
aI01
aI01
aI01
aa(lp69
I01
aI00
aI00
aI00
aI00
aI00
aI00
aI00
aI00
aI00
aI00
aI00
aI00
aI00
aI00
aI00
aI00
aI01
aa(lp70
I01
aI01
aI01
aI01
aI01
aI01
aI01
aI01
aI01
aI01
aI01
aI01
aI01
aI01
aI01
aI01
aI00
aI01
aa(lp71
I01
aI00
aI01
aI00
aI00
aI01
aI00
aI00
aI00
aI00
aI00
aI01
aI00
aI01
aI00
aI01
aI00
aI01
aa(lp72
I01
aI00
aI00
aI00
aI00
aI01
aI00
aI01
aI01
aI01
aI01
aI01
aI00
aI01
aI00
aI00
aI00
aI01
aa(lp73
I01
aI00
aI01
aI00
aI00
aI01
aI00
aI01
aI00
aI00
aI00
aI01
aI00
aI01
aI00
aI00
aI00
aI01
aa(lp74
I01
aI00
aI01
aI00
aI00
aI00
aI00
aI00
aI00
aI01
aI00
aI01
aI00
aI01
aI01
aI00
aI01
aI01
aa(lp75
I01
aI00
aI01
aI00
aI00
aI01
aI00
aI00
aI00
aI00
aI00
aI01
aI00
aI01
aI00
aI00
aI00
aI01
aa(lp76
I01
aI00
aI01
aI01
aI01
aI01
aI01
aI00
aI01
aI01
aI01
aI01
aI00
aI00
aI00
aI00
aI00
aI01
aa(lp77
I01
aI00
aI01
aI00
aI00
aI00
aI00
aI00
aI00
aI00
aI00
aI01
aI00
aI01
aI00
aI01
aI00
aI01
aa(lp78
I01
aI00
aI01
aI00
aI00
aI00
aI00
aI00
aI00
aI00
aI00
aI01
aI00
aI00
aI00
aI01
aI00
aI01
aa(lp79
I01
aI01
aI01
aI00
aI01
aI01
aI01
aI01
aI01
aI01
aI00
aI00
aI00
aI00
aI01
aI01
aI01
aI01
aa(lp80
I01
aI00
aI00
aI00
aI00
aI00
aI00
aI00
aI00
aI00
aI00
aI01
aI00
aI00
aI00
aI00
aI00
aI01
aa(lp81
I01
aI00
aI01
aI01
aI01
aI01
aI01
aI01
aI00
aI01
aI00
aI01
aI01
aI01
aI01
aI01
aI01
aI01
aa(lp82
I01
aI00
aI00
aI00
aI00
aI00
aI00
aI00
aI00
aI00
aI00
aI00
aI00
aI00
aI00
aI00
aI00
aI01
aa(lp83
I01
aI01
aI01
aI00
aI01
aI01
aI01
aI01
aI01
aI01
aI01
aI01
aI01
aI01
aI00
aI01
aI01
aI01
aa(lp84
I01
aI00
aI00
aI00
aI00
aI00
aI00
aI00
aI00
aI00
aI00
aI00
aI00
aI00
aI00
aI00
aI00
aI01
aa(lp85
I01
aI00
aI00
aI00
aI00
aI00
aI00
aI00
aI00
aI00
aI00
aI00
aI00
aI00
aI00
aI00
aI00
aI01
aa(lp86
I01
aI01
aI01
aI00
aI01
aI01
aI01
aI01
aI01
aI01
aI01
aI01
aI01
aI01
aI00
aI01
aI01
aI01
aa(lp87
I01
aI00
aI00
aI00
aI00
aI00
aI00
aI00
aI00
aI00
aI00
aI00
aI00
aI00
aI00
aI00
aI00
aI01
aa(lp88
I01
aI01
aI01
aI01
aI01
aI01
aI01
aI00
aI01
aI00
aI01
aI01
aI01
aI01
aI01
aI01
aI00
aI01
aa(lp89
I01
aI00
aI00
aI00
aI00
aI00
aI01
aI00
aI00
aI00
aI00
aI00
aI00
aI00
aI00
aI00
aI00
aI01
aa(lp90
I01
aI01
aI01
aI01
aI00
aI00
aI00
aI00
aI01
aI01
aI01
aI01
aI01
aI01
aI00
aI01
aI01
aI01
aa(lp91
I01
aI00
aI01
aI00
aI00
aI00
aI01
aI00
aI00
aI00
aI00
aI00
aI00
aI00
aI00
aI01
aI00
aI01
aa(lp92
I01
aI00
aI01
aI00
aI01
aI00
aI01
aI00
aI00
aI00
aI00
aI00
aI00
aI00
aI00
aI01
aI00
aI01
aa(lp93
I01
aI00
aI00
aI00
aI00
aI00
aI01
aI01
aI01
aI01
aI00
aI01
aI01
aI01
aI01
aI01
aI00
aI01
aa(lp94
I01
aI00
aI00
aI00
aI01
aI00
aI01
aI00
aI00
aI00
aI00
aI00
aI01
aI00
aI00
aI01
aI00
aI01
aa(lp95
I01
aI01
aI00
aI01
aI01
aI00
aI01
aI00
aI01
aI00
aI00
aI00
aI00
aI00
aI00
aI01
aI00
aI01
aa(lp96
I01
aI00
aI00
aI00
aI01
aI00
aI01
aI00
aI00
aI00
aI01
aI00
aI01
aI00
aI00
aI01
aI00
aI01
aa(lp97
I01
aI00
aI00
aI00
aI01
aI00
aI01
aI01
aI01
aI01
aI01
aI00
aI01
aI00
aI00
aI00
aI00
aI01
aa(lp98
I01
aI00
aI01
aI00
aI01
aI00
aI01
aI00
aI00
aI00
aI00
aI00
aI01
aI00
aI00
aI01
aI00
aI01
aa(lp99
I01
aI00
aI01
aI01
aI01
aI01
aI01
aI01
aI01
aI01
aI01
aI01
aI01
aI01
aI01
aI01
aI01
aI01
aa(lp100
I01
aI00
aI00
aI00
aI00
aI00
aI00
aI00
aI00
aI00
aI00
aI00
aI00
aI00
aI00
aI00
aI00
aI01
aa(lp101
I01
aI01
aI01
aI01
aI01
aI01
aI01
aI01
aI01
aI01
aI01
aI01
aI01
aI01
aI01
aI01
aI01
aI01
aasg53
I18
sbsS'layoutText'
p102
(lp103
S'%%%%%%%%%%%%%%%%%%%%%%%%%%%%%%%%%%'
p104
aS'%  .  %  ..%.%.%  %   %..      %4%'
p105
aS'% %%  .  %%%.%.%  % % %%%%%%% %%2%'
p106
aS'% %.  % o..% %      %    %..   % %'
p107
aS'% %%%%%% %   % %  % % %. %     % %'
p108
aS'% %..   .  o % %  % % %  %% %%%% %'
p109
aS'% %%%%%%%%% %% %  % % %. %     % %'
p110
aS'% %.%.  %.  .  %  % % %..  .%% % %'
p111
aS'% %.% %.%  % % %  %   %  % . % % %'
p112
aS'% % % . %  %   %  % % %  %.% %.% %'
p113
aS'% % %%.  ..% % %  %  .  .%  .%.% %'
p114
aS'% %     % .% % %  % %% %%%%%%%%% %'
p115
aS'% %%%% %%  % % %  % % o  .   ..% %'
p116
aS'% %     % .% % %  % %   % %%%%%% %'
p117
aS'% %   ..%    %      % %..o %  .% %'
p118
aS'%1%% %%%%%%% % %  %.%.%%%  .  %% %'
p119
aS'%3%      ..%   %  %.%.%..  %  .  %'
p120
aS'%%%%%%%%%%%%%%%%%%%%%%%%%%%%%%%%%%'
p121
asbsS'blueTeamName'
p122
S'HAL9001'
p123
sS'actions'
p124
(lp125
(I0
S'North'
p126
tp127
a(I1
S'South'
p128
tp129
a(I2
g126
tp130
a(I3
g128
tp131
a(I0
g126
tp132
a(I1
g128
tp133
a(I2
g126
tp134
a(I3
g128
tp135
a(I0
g126
tp136
a(I1
g128
tp137
a(I2
g126
tp138
a(I3
g128
tp139
a(I0
g126
tp140
a(I1
g128
tp141
a(I2
g126
tp142
a(I3
g128
tp143
a(I0
g126
tp144
a(I1
g128
tp145
a(I2
g126
tp146
a(I3
g128
tp147
a(I0
g126
tp148
a(I1
g128
tp149
a(I2
g126
tp150
a(I3
g128
tp151
a(I0
g126
tp152
a(I1
g128
tp153
a(I2
g126
tp154
a(I3
g128
tp155
a(I0
g126
tp156
a(I1
g128
tp157
a(I2
g126
tp158
a(I3
g128
tp159
a(I0
g126
tp160
a(I1
g128
tp161
a(I2
g126
tp162
a(I3
g128
tp163
a(I0
g126
tp164
a(I1
g128
tp165
a(I2
g126
tp166
a(I3
g128
tp167
a(I0
g126
tp168
a(I1
g128
tp169
a(I2
g126
tp170
a(I3
g128
tp171
a(I0
g126
tp172
a(I1
g128
tp173
a(I2
g126
tp174
a(I3
g128
tp175
a(I0
g126
tp176
a(I1
g128
tp177
a(I2
g126
tp178
a(I3
g128
tp179
a(I0
g126
tp180
a(I1
g128
tp181
a(I2
g126
tp182
a(I3
g128
tp183
a(I0
S'East'
p184
tp185
a(I1
S'West'
p186
tp187
a(I2
g126
tp188
a(I3
g128
tp189
a(I0
g184
tp190
a(I1
g186
tp191
a(I2
g184
tp192
a(I3
g186
tp193
a(I0
g184
tp194
a(I1
g186
tp195
a(I2
g184
tp196
a(I3
g186
tp197
a(I0
g128
tp198
a(I1
g126
tp199
a(I2
g184
tp200
a(I3
g186
tp201
a(I0
g184
tp202
a(I1
g186
tp203
a(I2
g128
tp204
a(I3
g186
tp205
a(I0
g184
tp206
a(I1
g186
tp207
a(I2
g184
tp208
a(I3
g126
tp209
a(I0
g184
tp210
a(I1
g186
tp211
a(I2
g184
tp212
a(I3
g186
tp213
a(I0
g128
tp214
a(I1
g126
tp215
a(I2
g184
tp216
a(I3
g186
tp217
a(I0
g184
tp218
a(I1
g186
tp219
a(I2
g184
tp220
a(I3
g186
tp221
a(I0
g128
tp222
a(I1
g186
tp223
a(I2
g128
tp224
a(I3
g126
tp225
a(I0
g128
tp226
a(I1
g186
tp227
a(I2
g128
tp228
a(I3
g186
tp229
a(I0
g184
tp230
a(I1
g126
tp231
a(I2
g128
tp232
a(I3
g186
tp233
a(I0
g184
tp234
a(I1
g186
tp235
a(I2
g184
tp236
a(I3
g126
tp237
a(I0
g184
tp238
a(I1
g126
tp239
a(I2
g184
tp240
a(I3
g126
tp241
a(I0
g128
tp242
a(I1
g126
tp243
a(I2
g184
tp244
a(I3
g186
tp245
a(I0
g128
tp246
a(I1
g126
tp247
a(I2
g128
tp248
a(I3
g126
tp249
a(I0
S'Stop'
p250
tp251
a(I1
g186
tp252
a(I2
g128
tp253
a(I3
g126
tp254
a(I0
g250
tp255
a(I1
g186
tp256
a(I2
g184
tp257
a(I3
g186
tp258
a(I0
g250
tp259
a(I1
g186
tp260
a(I2
g184
tp261
a(I3
g186
tp262
a(I0
g250
tp263
a(I1
g126
tp264
a(I2
g184
tp265
a(I3
g186
tp266
a(I0
g250
tp267
a(I1
g126
tp268
a(I2
g128
tp269
a(I3
g128
tp270
a(I0
g250
tp271
a(I1
g126
tp272
a(I2
g128
tp273
a(I3
g128
tp274
a(I0
g250
tp275
a(I1
g126
tp276
a(I2
g128
tp277
a(I3
g128
tp278
a(I0
g250
tp279
a(I1
g126
tp280
a(I2
g128
tp281
a(I3
g128
tp282
a(I0
g250
tp283
a(I1
g126
tp284
a(I2
g128
tp285
a(I3
g186
tp286
a(I0
g250
tp287
a(I1
g126
tp288
a(I2
g128
tp289
a(I3
g186
tp290
a(I0
g250
tp291
a(I1
g186
tp292
a(I2
g128
tp293
a(I3
g250
tp294
a(I0
g250
tp295
a(I1
g186
tp296
a(I2
g184
tp297
a(I3
g128
tp298
a(I0
g250
tp299
a(I1
g186
tp300
a(I2
g184
tp301
a(I3
g128
tp302
a(I0
g250
tp303
a(I1
g186
tp304
a(I2
g184
tp305
a(I3
g126
tp306
a(I0
g250
tp307
a(I1
g184
tp308
a(I2
g184
tp309
a(I3
g126
tp310
a(I0
g250
tp311
a(I1
g128
tp312
a(I2
g184
tp313
a(I3
g184
tp314
a(I0
g250
tp315
a(I1
g128
tp316
a(I2
g128
tp317
a(I3
g184
tp318
a(I0
g250
tp319
a(I1
g128
tp320
a(I2
g128
tp321
a(I3
g128
tp322
a(I0
g250
tp323
a(I1
g128
tp324
a(I2
g250
tp325
a(I3
g128
tp326
a(I0
g184
tp327
a(I1
g126
tp328
a(I2
g126
tp329
a(I3
g126
tp330
a(I0
g184
tp331
a(I1
g126
tp332
a(I2
g126
tp333
a(I3
g126
tp334
a(I0
g184
tp335
a(I1
g126
tp336
a(I2
g126
tp337
a(I3
g186
tp338
a(I0
g126
tp339
a(I1
g126
tp340
a(I2
g126
tp341
a(I3
g186
tp342
a(I0
g126
tp343
a(I1
g186
tp344
a(I2
g126
tp345
a(I3
g186
tp346
a(I0
g126
tp347
a(I1
g184
tp348
a(I2
g126
tp349
a(I3
g186
tp350
a(I0
g126
tp351
a(I1
g184
tp352
a(I2
g126
tp353
a(I3
g186
tp354
a(I0
g128
tp355
a(I1
g186
tp356
a(I2
g126
tp357
a(I3
g128
tp358
a(I0
g126
tp359
a(I1
g126
tp360
a(I2
g126
tp361
a(I3
g128
tp362
a(I0
g184
tp363
a(I1
g184
tp364
a(I2
g126
tp365
a(I3
g186
tp366
a(I0
g186
tp367
a(I1
g186
tp368
a(I2
g126
tp369
a(I3
g186
tp370
a(I0
g184
tp371
a(I1
g184
tp372
a(I2
g126
tp373
a(I3
g126
tp374
a(I0
g186
tp375
a(I1
g186
tp376
a(I2
g126
tp377
a(I3
g126
tp378
a(I0
g184
tp379
a(I1
g126
tp380
a(I2
g126
tp381
a(I3
g186
tp382
a(I0
g184
tp383
a(I1
g184
tp384
a(I2
g126
tp385
a(I3
g186
tp386
a(I0
g186
tp387
a(I1
g186
tp388
a(I2
g184
tp389
a(I3
g126
tp390
a(I0
g184
tp391
a(I1
g184
tp392
a(I2
g184
tp393
a(I3
g126
tp394
a(I0
g186
tp395
a(I1
g186
tp396
a(I2
g184
tp397
a(I3
g126
tp398
a(I0
g184
tp399
a(I1
g184
tp400
a(I2
g184
tp401
a(I3
g126
tp402
a(I0
g186
tp403
a(I1
g128
tp404
a(I2
g128
tp405
a(I3
g186
tp406
a(I0
g186
tp407
a(I1
g186
tp408
a(I2
g184
tp409
a(I3
g186
tp410
a(I0
g184
tp411
a(I1
g184
tp412
a(I2
g184
tp413
a(I3
g186
tp414
a(I0
g186
tp415
a(I1
g128
tp416
a(I2
g128
tp417
a(I3
g186
tp418
a(I0
g128
tp419
a(I1
g186
tp420
a(I2
g184
tp421
a(I3
g126
tp422
a(I0
g126
tp423
a(I1
g184
tp424
a(I2
g184
tp425
a(I3
g184
tp426
a(I0
g128
tp427
a(I1
g186
tp428
a(I2
g184
tp429
a(I3
g126
tp430
a(I0
g126
tp431
a(I1
g128
tp432
a(I2
g128
tp433
a(I3
g128
tp434
a(I0
g184
tp435
a(I1
g128
tp436
a(I2
g184
tp437
a(I3
g186
tp438
a(I0
g184
tp439
a(I1
g184
tp440
a(I2
g128
tp441
a(I3
g128
tp442
a(I0
g186
tp443
a(I1
g126
tp444
a(I2
g128
tp445
a(I3
g128
tp446
a(I0
g186
tp447
a(I1
g186
tp448
a(I2
g128
tp449
a(I3
g128
tp450
a(I0
g184
tp451
a(I1
g184
tp452
a(I2
g184
tp453
a(I3
g128
tp454
a(I0
g186
tp455
a(I1
g126
tp456
a(I2
g184
tp457
a(I3
g128
tp458
a(I0
g128
tp459
a(I1
g186
tp460
a(I2
g184
tp461
a(I3
g184
tp462
a(I0
g126
tp463
a(I1
g128
tp464
a(I2
g128
tp465
a(I3
g186
tp466
a(I0
g184
tp467
a(I1
g128
tp468
a(I2
g128
tp469
a(I3
g186
tp470
a(I0
g184
tp471
a(I1
g128
tp472
a(I2
g128
tp473
a(I3
g186
tp474
a(I0
g128
tp475
a(I1
g128
tp476
a(I2
g128
tp477
a(I3
g128
tp478
a(I0
g128
tp479
a(I1
g128
tp480
a(I2
g128
tp481
a(I3
g128
tp482
a(I0
g128
tp483
a(I1
g128
tp484
a(I2
g128
tp485
a(I3
g184
tp486
a(I0
g128
tp487
a(I1
g128
tp488
a(I2
g128
tp489
a(I3
g184
tp490
a(I0
g128
tp491
a(I1
g184
tp492
a(I2
g184
tp493
a(I3
g184
tp494
a(I0
g126
tp495
a(I1
g186
tp496
a(I2
g184
tp497
a(I3
g184
tp498
a(I0
g128
tp499
a(I1
g128
tp500
a(I2
g184
tp501
a(I3
g184
tp502
a(I0
g128
tp503
a(I1
g184
tp504
a(I2
g184
tp505
a(I3
g184
tp506
a(I0
g126
tp507
a(I1
g128
tp508
a(I2
g184
tp509
a(I3
g186
tp510
a(I0
g126
tp511
a(I1
g128
tp512
a(I2
g126
tp513
a(I3
g186
tp514
a(I0
g126
tp515
a(I1
g128
tp516
a(I2
g126
tp517
a(I3
g186
tp518
a(I0
g126
tp519
a(I1
g184
tp520
a(I2
g126
tp521
a(I3
g186
tp522
a(I0
g126
tp523
a(I1
g184
tp524
a(I2
g126
tp525
a(I3
g186
tp526
a(I0
g126
tp527
a(I1
g126
tp528
a(I2
g184
tp529
a(I3
g186
tp530
a(I0
g186
tp531
a(I1
g126
tp532
a(I2
g184
tp533
a(I3
g126
tp534
a(I0
g186
tp535
a(I1
g126
tp536
a(I2
g184
tp537
a(I3
g126
tp538
a(I0
g128
tp539
a(I1
g126
tp540
a(I2
g184
tp541
a(I3
g184
tp542
a(I0
g128
tp543
a(I1
g184
tp544
a(I2
g184
tp545
a(I3
g126
tp546
a(I0
g128
tp547
a(I1
g184
tp548
a(I2
g126
tp549
a(I3
g184
tp550
a(I0
g128
tp551
a(I1
g184
tp552
a(I2
g126
tp553
a(I3
g126
tp554
a(I0
g186
tp555
a(I1
g184
tp556
a(I2
g126
tp557
a(I3
g126
tp558
a(I0
g186
tp559
a(I1
g126
tp560
a(I2
g186
tp561
a(I3
g126
tp562
a(I0
g186
tp563
a(I1
g126
tp564
a(I2
g126
tp565
a(I3
g184
tp566
a(I0
g250
tp567
a(I1
g126
tp568
a(I2
g126
tp569
a(I3
g184
tp570
a(I0
g250
tp571
a(I1
g126
tp572
a(I2
g126
tp573
a(I3
g184
tp574
a(I0
g186
tp575
a(I1
g184
tp576
a(I2
g128
tp577
a(I3
g126
tp578
a(I0
g186
tp579
a(I1
g128
tp580
a(I2
g184
tp581
a(I3
g184
tp582
a(I0
g128
tp583
a(I1
g186
tp584
a(I2
g128
tp585
a(I3
g128
tp586
a(I0
g128
tp587
a(I1
g128
tp588
a(I2
g128
tp589
a(I3
g128
tp590
a(I0
g128
tp591
a(I1
g128
tp592
a(I2
g184
tp593
a(I3
g128
tp594
a(I0
g128
tp595
a(I1
g126
tp596
a(I2
g184
tp597
a(I3
g128
tp598
a(I0
g128
tp599
a(I1
g126
tp600
a(I2
g184
tp601
a(I3
g128
tp602
a(I0
g128
tp603
a(I1
g184
tp604
a(I2
g128
tp605
a(I3
g184
tp606
a(I0
g128
tp607
a(I1
g184
tp608
a(I2
g186
tp609
a(I3
g184
tp610
a(I0
g184
tp611
a(I1
g186
tp612
a(I2
g128
tp613
a(I3
g128
tp614
a(I0
g184
tp615
a(I1
g184
tp616
a(I2
g128
tp617
a(I3
g128
tp618
a(I0
g184
tp619
a(I1
g184
tp620
a(I2
g184
tp621
a(I3
g184
tp622
a(I0
g128
tp623
a(I1
g128
tp624
a(I2
g184
tp625
a(I3
g184
tp626
a(I0
g128
tp627
a(I1
g184
tp628
a(I2
g126
tp629
a(I3
g126
tp630
a(I0
g184
tp631
a(I1
g186
tp632
a(I2
g126
tp633
a(I3
g126
tp634
a(I0
g184
tp635
a(I1
g126
tp636
a(I2
g186
tp637
a(I3
g184
tp638
a(I0
g126
tp639
a(I1
g186
tp640
a(I2
g126
tp641
a(I3
g184
tp642
a(I0
g126
tp643
a(I1
g186
tp644
a(I2
g126
tp645
a(I3
g184
tp646
a(I0
g126
tp647
a(I1
g184
tp648
a(I2
g126
tp649
a(I3
g184
tp650
a(I0
g126
tp651
a(I1
g184
tp652
a(I2
g126
tp653
a(I3
g184
tp654
a(I0
g126
tp655
a(I1
g126
tp656
a(I2
g126
tp657
a(I3
g126
tp658
a(I0
g126
tp659
a(I1
g184
tp660
a(I2
g186
tp661
a(I3
g126
tp662
a(I0
g126
tp663
a(I1
g126
tp664
a(I2
g184
tp665
a(I3
g126
tp666
a(I0
g186
tp667
a(I1
g126
tp668
a(I2
g184
tp669
a(I3
g126
tp670
a(I0
g186
tp671
a(I1
g184
tp672
a(I2
g184
tp673
a(I3
g184
tp674
a(I0
g126
tp675
a(I1
g184
tp676
a(I2
g126
tp677
a(I3
g184
tp678
a(I0
g126
tp679
a(I1
g126
tp680
a(I2
g126
tp681
a(I3
g184
tp682
a(I0
g186
tp683
a(I1
g126
tp684
a(I2
g186
tp685
a(I3
g184
tp686
a(I0
g250
tp687
a(I1
g126
tp688
a(I2
g186
tp689
a(I3
g184
tp690
a(I0
g250
tp691
a(I1
g186
tp692
a(I2
g186
tp693
a(I3
g126
tp694
a(I0
g250
tp695
a(I1
g186
tp696
a(I2
g186
tp697
a(I3
g126
tp698
a(I0
g250
tp699
a(I1
g186
tp700
a(I2
g186
tp701
a(I3
g126
tp702
a(I0
g250
tp703
a(I1
g186
tp704
a(I2
g186
tp705
a(I3
g184
tp706
a(I0
g250
tp707
a(I1
g186
tp708
a(I2
g250
tp709
a(I3
g184
tp710
a(I0
g250
tp711
a(I1
g186
tp712
a(I2
g126
tp713
a(I3
g186
tp714
a(I0
g250
tp715
a(I1
g184
tp716
a(I2
g126
tp717
a(I3
g186
tp718
a(I0
g250
tp719
a(I1
g184
tp720
a(I2
g126
tp721
a(I3
g186
tp722
a(I0
g250
tp723
a(I1
g184
tp724
a(I2
g126
tp725
a(I3
g128
tp726
a(I0
g250
tp727
a(I1
g184
tp728
a(I2
g126
tp729
a(I3
g128
tp730
a(I0
g250
tp731
a(I1
g184
tp732
a(I2
g126
tp733
a(I3
g128
tp734
a(I0
g250
tp735
a(I1
g184
tp736
a(I2
g126
tp737
a(I3
g186
tp738
a(I0
g250
tp739
a(I1
g128
tp740
a(I2
g126
tp741
a(I3
g186
tp742
a(I0
g250
tp743
a(I1
g128
tp744
a(I2
g126
tp745
a(I3
g186
tp746
a(I0
g250
tp747
a(I1
g128
tp748
a(I2
g126
tp749
a(I3
g186
tp750
a(I0
g250
tp751
a(I1
g186
tp752
a(I2
g126
tp753
a(I3
g128
tp754
a(I0
g250
tp755
a(I1
g186
tp756
a(I2
g126
tp757
a(I3
g128
tp758
a(I0
g250
tp759
a(I1
g128
tp760
a(I2
g126
tp761
a(I3
g128
tp762
a(I0
g250
tp763
a(I1
g128
tp764
a(I2
g126
tp765
a(I3
g128
tp766
a(I0
g250
tp767
a(I1
g186
tp768
a(I2
g126
tp769
a(I3
g186
tp770
a(I0
g250
tp771
a(I1
g128
tp772
a(I2
g184
tp773
a(I3
g186
tp774
a(I0
g250
tp775
a(I1
g186
tp776
a(I2
g184
tp777
a(I3
g186
tp778
a(I0
g250
tp779
a(I1
g186
tp780
a(I2
g184
tp781
a(I3
g186
tp782
a(I0
g250
tp783
a(I1
g126
tp784
a(I2
g128
tp785
a(I3
g186
tp786
a(I0
g250
tp787
a(I1
g186
tp788
a(I2
g184
tp789
a(I3
g128
tp790
a(I0
g250
tp791
a(I1
g126
tp792
a(I2
g184
tp793
a(I3
g128
tp794
a(I0
g250
tp795
a(I1
g126
tp796
a(I2
g184
tp797
a(I3
g186
tp798
a(I0
g250
tp799
a(I1
g126
tp800
a(I2
g128
tp801
a(I3
g186
tp802
a(I0
g250
tp803
a(I1
g186
tp804
a(I2
g184
tp805
a(I3
g126
tp806
a(I0
g250
tp807
a(I1
g186
tp808
a(I2
g128
tp809
a(I3
g126
tp810
a(I0
g250
tp811
a(I1
g126
tp812
a(I2
g128
tp813
a(I3
g186
tp814
a(I0
g250
tp815
a(I1
g126
tp816
a(I2
g184
tp817
a(I3
g186
tp818
a(I0
g250
tp819
a(I1
g186
tp820
a(I2
g184
tp821
a(I3
g126
tp822
a(I0
g250
tp823
a(I1
g186
tp824
a(I2
g184
tp825
a(I3
g186
tp826
a(I0
g250
tp827
a(I1
g128
tp828
a(I2
g128
tp829
a(I3
g126
tp830
a(I0
g250
tp831
a(I1
g128
tp832
a(I2
g128
tp833
a(I3
g126
tp834
a(I0
g250
tp835
a(I1
g186
tp836
a(I2
g184
tp837
a(I3
g126
tp838
a(I0
g186
tp839
a(I1
g186
tp840
a(I2
g184
tp841
a(I3
g186
tp842
a(I0
g186
tp843
a(I1
g186
tp844
a(I2
g184
tp845
a(I3
g186
tp846
a(I0
g128
tp847
a(I1
g186
tp848
a(I2
g126
tp849
a(I3
g186
tp850
a(I0
g128
tp851
a(I1
g186
tp852
a(I2
g126
tp853
a(I3
g128
tp854
a(I0
g128
tp855
a(I1
g126
tp856
a(I2
g126
tp857
a(I3
g186
tp858
a(I0
g186
tp859
a(I1
g126
tp860
a(I2
g126
tp861
a(I3
g186
tp862
a(I0
g186
tp863
a(I1
g250
tp864
a(I2
g184
tp865
a(I3
g186
tp866
a(I0
g186
tp867
a(I1
g250
tp868
a(I2
g184
tp869
a(I3
g126
tp870
a(I0
g128
tp871
a(I1
g128
tp872
a(I2
g184
tp873
a(I3
g128
tp874
a(I0
g186
tp875
a(I1
g128
tp876
a(I2
g184
tp877
a(I3
g126
tp878
a(I0
g186
tp879
a(I1
g184
tp880
a(I2
g184
tp881
a(I3
g126
tp882
a(I0
g186
tp883
a(I1
g184
tp884
a(I2
g128
tp885
a(I3
g126
tp886
a(I0
g126
tp887
a(I1
g184
tp888
a(I2
g128
tp889
a(I3
g126
tp890
a(I0
g126
tp891
a(I1
g184
tp892
a(I2
g128
tp893
a(I3
g128
tp894
a(I0
g126
tp895
a(I1
g184
tp896
a(I2
g128
tp897
a(I3
g128
tp898
a(I0
g128
tp899
a(I1
g128
tp900
a(I2
g128
tp901
a(I3
g128
tp902
a(I0
g128
tp903
a(I1
g128
tp904
a(I2
g184
tp905
a(I3
g128
tp906
a(I0
g128
tp907
a(I1
g128
tp908
a(I2
g184
tp909
a(I3
g128
tp910
a(I0
g184
tp911
a(I1
g128
tp912
a(I2
g128
tp913
a(I3
g128
tp914
a(I0
g184
tp915
a(I1
g128
tp916
a(I2
g128
tp917
a(I3
g128
tp918
a(I0
g184
tp919
a(I1
g128
tp920
a(I2
g184
tp921
a(I3
g128
tp922
a(I0
g126
tp923
a(I1
g128
tp924
a(I2
g128
tp925
a(I3
g128
tp926
a(I0
g184
tp927
a(I1
g184
tp928
a(I2
g128
tp929
a(I3
g128
tp930
a(I0
g184
tp931
a(I1
g186
tp932
a(I2
g184
tp933
a(I3
g128
tp934
a(I0
g184
tp935
a(I1
g128
tp936
a(I2
g128
tp937
a(I3
g128
tp938
a(I0
g126
tp939
a(I1
g128
tp940
a(I2
g128
tp941
a(I3
g128
tp942
a(I0
g126
tp943
a(I1
g128
tp944
a(I2
g184
tp945
a(I3
g128
tp946
a(I0
g126
tp947
a(I1
g128
tp948
a(I2
g184
tp949
a(I3
g128
tp950
a(I0
g184
tp951
a(I1
g186
tp952
a(I2
g126
tp953
a(I3
g128
tp954
a(I0
g184
tp955
a(I1
g186
tp956
a(I2
g126
tp957
a(I3
g186
tp958
a(I0
g250
tp959
a(I1
g186
tp960
a(I2
g184
tp961
a(I3
g186
tp962
a(I0
g250
tp963
a(I1
g186
tp964
a(I2
g184
tp965
a(I3
g186
tp966
a(I0
g250
tp967
a(I1
g186
tp968
a(I2
g184
tp969
a(I3
g126
tp970
a(I0
g250
tp971
a(I1
g126
tp972
a(I2
g184
tp973
a(I3
g186
tp974
a(I0
g250
tp975
a(I1
g126
tp976
a(I2
g184
tp977
a(I3
g186
tp978
a(I0
g250
tp979
a(I1
g126
tp980
a(I2
g186
tp981
a(I3
g186
tp982
a(I0
g250
tp983
a(I1
g126
tp984
a(I2
g186
tp985
a(I3
g126
tp986
a(I0
g250
tp987
a(I1
g126
tp988
a(I2
g186
tp989
a(I3
g186
tp990
a(I0
g184
tp991
a(I1
g126
tp992
a(I2
g186
tp993
a(I3
g186
tp994
a(I0
g184
tp995
a(I1
g128
tp996
a(I2
g186
tp997
a(I3
g186
tp998
a(I0
g184
tp999
a(I1
g186
tp1000
a(I2
g128
tp1001
a(I3
g126
tp1002
a(I0
g128
tp1003
a(I1
g186
tp1004
a(I2
g128
tp1005
a(I3
g186
tp1006
a(I0
g128
tp1007
a(I1
g126
tp1008
a(I2
g184
tp1009
a(I3
g126
tp1010
a(I0
g186
tp1011
a(I1
g126
tp1012
a(I2
g128
tp1013
a(I3
g126
tp1014
a(I0
g186
tp1015
a(I1
g186
tp1016
a(I2
g184
tp1017
a(I3
g126
tp1018
a(I0
g126
tp1019
a(I1
g186
tp1020
a(I2
g184
tp1021
a(I3
g186
tp1022
a(I0
g126
tp1023
a(I1
g186
tp1024
a(I2
g126
tp1025
a(I3
g186
tp1026
a(I0
g186
tp1027
a(I1
g128
tp1028
a(I2
g184
tp1029
a(I3
g186
tp1030
a(I0
g186
tp1031
a(I1
g128
tp1032
a(I2
g184
tp1033
a(I3
g128
tp1034
a(I0
g186
tp1035
a(I1
g128
tp1036
a(I2
g186
tp1037
a(I3
g128
tp1038
a(I0
g128
tp1039
a(I1
g186
tp1040
a(I2
g128
tp1041
a(I3
g128
tp1042
a(I0
g128
tp1043
a(I1
g186
tp1044
a(I2
g128
tp1045
a(I3
g128
tp1046
a(I0
g128
tp1047
a(I1
g186
tp1048
a(I2
g184
tp1049
a(I3
g186
tp1050
a(I0
g186
tp1051
a(I1
g126
tp1052
a(I2
g186
tp1053
a(I3
g186
tp1054
a(I0
g186
tp1055
a(I1
g186
tp1056
a(I2
g126
tp1057
a(I3
g186
tp1058
a(I0
g186
tp1059
a(I1
g126
tp1060
a(I2
g186
tp1061
a(I3
g186
tp1062
a(I0
g126
tp1063
a(I1
g126
tp1064
a(I2
g186
tp1065
a(I3
g186
tp1066
a(I0
g186
tp1067
a(I1
g184
tp1068
a(I2
g186
tp1069
a(I3
g126
tp1070
a(I0
g126
tp1071
a(I1
g184
tp1072
a(I2
g128
tp1073
a(I3
g126
tp1074
a(I0
g126
tp1075
a(I1
g128
tp1076
a(I2
g186
tp1077
a(I3
g126
tp1078
a(I0
g184
tp1079
a(I1
g128
tp1080
a(I2
g186
tp1081
a(I3
g126
tp1082
a(I0
g184
tp1083
a(I1
g128
tp1084
a(I2
g186
tp1085
a(I3
g126
tp1086
a(I0
g128
tp1087
a(I1
g184
tp1088
a(I2
g184
tp1089
a(I3
g126
tp1090
a(I0
g128
tp1091
a(I1
g184
tp1092
a(I2
g184
tp1093
a(I3
g126
tp1094
a(I0
g128
tp1095
a(I1
g184
tp1096
a(I2
g126
tp1097
a(I3
g186
tp1098
a(I0
g184
tp1099
a(I1
g126
tp1100
a(I2
g126
tp1101
a(I3
g186
tp1102
a(I0
g184
tp1103
a(I1
g126
tp1104
a(I2
g186
tp1105
a(I3
g186
tp1106
a(I0
g126
tp1107
a(I1
g126
tp1108
a(I2
g186
tp1109
a(I3
g126
tp1110
a(I0
g126
tp1111
a(I1
g184
tp1112
a(I2
g126
tp1113
a(I3
g126
tp1114
a(I0
g128
tp1115
a(I1
g126
tp1116
a(I2
g186
tp1117
a(I3
g186
tp1118
a(I0
g128
tp1119
a(I1
g126
tp1120
a(I2
g186
tp1121
a(I3
g126
tp1122
a(I0
g186
tp1123
a(I1
g186
tp1124
a(I2
g128
tp1125
a(I3
g126
tp1126
a(I0
g186
tp1127
a(I1
g186
tp1128
a(I2
g128
tp1129
a(I3
g186
tp1130
a(I0
g126
tp1131
a(I1
g186
tp1132
a(I2
g128
tp1133
asS'length'
p1134
I1200
sS'agents'
p1135
(lp1136
(igame
Agent
p1137
(dp1138
S'index'
p1139
I0
sba(igame
Agent
p1140
(dp1141
g1139
I0
sba(igame
Agent
p1142
(dp1143
g1139
I0
sba(igame
Agent
p1144
(dp1145
g1139
I0
sbasS'redTeamName'
p1146
S'OverworkedImmigrants'
p1147
s.