(dp1
S'layout'
p2
(ilayout
Layout
p3
(dp4
S'capsules'
p5
(lp6
(I23
I1
tp7
a(I13
I4
tp8
a(I20
I13
tp9
a(I10
I16
tp10
asS'numGhosts'
p11
I4
sS'food'
p12
(igame
Grid
p13
(dp14
S'CELLS_PER_INT'
p15
I30
sS'width'
p16
I34
sS'data'
p17
(lp18
(lp19
I00
aI00
aI00
aI00
aI00
aI00
aI00
aI00
aI00
aI00
aI00
aI00
aI00
aI00
aI00
aI00
aI00
aI00
aa(lp20
I00
aI00
aI00
aI00
aI00
aI00
aI00
aI00
aI00
aI00
aI00
aI01
aI00
aI00
aI01
aI00
aI01
aI00
aa(lp21
I00
aI00
aI00
aI00
aI00
aI00
aI00
aI00
aI00
aI00
aI00
aI00
aI00
aI00
aI01
aI00
aI01
aI00
aa(lp22
I00
aI00
aI00
aI00
aI00
aI00
aI00
aI00
aI00
aI00
aI00
aI00
aI00
aI00
aI00
aI00
aI00
aI00
aa(lp23
I00
aI00
aI00
aI00
aI00
aI00
aI00
aI01
aI00
aI00
aI00
aI00
aI00
aI01
aI00
aI00
aI01
aI00
aa(lp24
I00
aI00
aI00
aI00
aI00
aI01
aI00
aI00
aI00
aI00
aI00
aI00
aI00
aI00
aI00
aI00
aI01
aI00
aa(lp25
I00
aI00
aI00
aI00
aI00
aI00
aI00
aI00
aI00
aI00
aI00
aI00
aI00
aI01
aI00
aI00
aI00
aI00
aa(lp26
I00
aI01
aI00
aI01
aI00
aI00
aI00
aI01
aI00
aI01
aI00
aI01
aI00
aI00
aI00
aI00
aI00
aI00
aa(lp27
I00
aI00
aI00
aI00
aI00
aI00
aI00
aI00
aI00
aI01
aI00
aI01
aI00
aI00
aI00
aI00
aI01
aI00
aa(lp28
I00
aI00
aI00
aI00
aI00
aI01
aI00
aI00
aI00
aI00
aI00
aI00
aI00
aI00
aI00
aI00
aI00
aI00
aa(lp29
I00
aI01
aI00
aI00
aI00
aI00
aI00
aI00
aI00
aI00
aI00
aI00
aI00
aI00
aI00
aI00
aI00
aI00
aa(lp30
I00
aI01
aI00
aI01
aI00
aI00
aI00
aI00
aI01
aI00
aI01
aI00
aI00
aI00
aI00
aI00
aI00
aI00
aa(lp31
I00
aI00
aI00
aI00
aI00
aI00
aI00
aI00
aI00
aI00
aI00
aI00
aI00
aI00
aI00
aI00
aI01
aI00
aa(lp32
I00
aI01
aI00
aI00
aI00
aI00
aI00
aI01
aI00
aI00
aI01
aI00
aI00
aI00
aI00
aI00
aI01
aI00
aa(lp33
I00
aI00
aI00
aI00
aI00
aI00
aI00
aI00
aI00
aI00
aI00
aI00
aI00
aI00
aI00
aI00
aI00
aI00
aa(lp34
I00
aI00
aI00
aI00
aI00
aI00
aI00
aI00
aI00
aI00
aI00
aI00
aI00
aI00
aI00
aI00
aI00
aI00
aa(lp35
I00
aI00
aI00
aI00
aI00
aI00
aI00
aI00
aI00
aI00
aI00
aI00
aI00
aI00
aI00
aI00
aI00
aI00
aa(lp36
I00
aI00
aI00
aI00
aI00
aI00
aI00
aI00
aI00
aI00
aI00
aI00
aI00
aI00
aI00
aI00
aI00
aI00
aa(lp37
I00
aI00
aI00
aI00
aI00
aI00
aI00
aI00
aI00
aI00
aI00
aI00
aI00
aI00
aI00
aI00
aI00
aI00
aa(lp38
I00
aI00
aI00
aI00
aI00
aI00
aI00
aI00
aI00
aI00
aI00
aI00
aI00
aI00
aI00
aI00
aI00
aI00
aa(lp39
I00
aI01
aI00
aI00
aI00
aI00
aI00
aI01
aI00
aI00
aI01
aI00
aI00
aI00
aI00
aI00
aI01
aI00
aa(lp40
I00
aI01
aI00
aI00
aI00
aI00
aI00
aI00
aI00
aI00
aI00
aI00
aI00
aI00
aI00
aI00
aI00
aI00
aa(lp41
I00
aI00
aI00
aI00
aI00
aI00
aI00
aI01
aI00
aI01
aI00
aI00
aI00
aI00
aI01
aI00
aI01
aI00
aa(lp42
I00
aI00
aI00
aI00
aI00
aI00
aI00
aI00
aI00
aI00
aI00
aI00
aI00
aI00
aI00
aI00
aI01
aI00
aa(lp43
I00
aI00
aI00
aI00
aI00
aI00
aI00
aI00
aI00
aI00
aI00
aI00
aI01
aI00
aI00
aI00
aI00
aI00
aa(lp44
I00
aI01
aI00
aI00
aI00
aI00
aI01
aI00
aI01
aI00
aI00
aI00
aI00
aI00
aI00
aI00
aI00
aI00
aa(lp45
I00
aI00
aI00
aI00
aI00
aI00
aI01
aI00
aI01
aI00
aI01
aI00
aI00
aI00
aI01
aI00
aI01
aI00
aa(lp46
I00
aI00
aI00
aI00
aI01
aI00
aI00
aI00
aI00
aI00
aI00
aI00
aI00
aI00
aI00
aI00
aI00
aI00
aa(lp47
I00
aI01
aI00
aI00
aI00
aI00
aI00
aI00
aI00
aI00
aI00
aI00
aI01
aI00
aI00
aI00
aI00
aI00
aa(lp48
I00
aI01
aI00
aI00
aI01
aI00
aI00
aI00
aI00
aI00
aI01
aI00
aI00
aI00
aI00
aI00
aI00
aI00
aa(lp49
I00
aI00
aI00
aI00
aI00
aI00
aI00
aI00
aI00
aI00
aI00
aI00
aI00
aI00
aI00
aI00
aI00
aI00
aa(lp50
I00
aI01
aI00
aI01
aI00
aI00
aI00
aI00
aI00
aI00
aI00
aI00
aI00
aI00
aI00
aI00
aI00
aI00
aa(lp51
I00
aI01
aI00
aI01
aI00
aI00
aI01
aI00
aI00
aI00
aI00
aI00
aI00
aI00
aI00
aI00
aI00
aI00
aa(lp52
I00
aI00
aI00
aI00
aI00
aI00
aI00
aI00
aI00
aI00
aI00
aI00
aI00
aI00
aI00
aI00
aI00
aI00
aasS'height'
p53
I18
sbsS'agentPositions'
p54
(lp55
(I00
(I1
I2
tp56
tp57
a(I00
(I32
I15
tp58
tp59
a(I00
(I1
I1
tp60
tp61
a(I00
(I32
I16
tp62
tp63
asg53
I18
sg16
I34
sS'walls'
p64
(igame
Grid
p65
(dp66
g15
I30
sg16
I34
sg17
(lp67
(lp68
I01
aI01
aI01
aI01
aI01
aI01
aI01
aI01
aI01
aI01
aI01
aI01
aI01
aI01
aI01
aI01
aI01
aI01
aa(lp69
I01
aI00
aI00
aI00
aI00
aI00
aI01
aI00
aI00
aI01
aI00
aI00
aI00
aI00
aI00
aI00
aI00
aI01
aa(lp70
I01
aI00
aI01
aI00
aI01
aI00
aI00
aI00
aI00
aI00
aI00
aI01
aI00
aI00
aI00
aI01
aI00
aI01
aa(lp71
I01
aI01
aI01
aI00
aI01
aI01
aI01
aI00
aI01
aI01
aI00
aI01
aI01
aI01
aI01
aI01
aI01
aI01
aa(lp72
I01
aI00
aI01
aI00
aI00
aI00
aI00
aI00
aI00
aI01
aI00
aI01
aI00
aI00
aI00
aI01
aI00
aI01
aa(lp73
I01
aI00
aI01
aI00
aI01
aI00
aI01
aI00
aI00
aI00
aI00
aI00
aI00
aI00
aI00
aI01
aI00
aI01
aa(lp74
I01
aI00
aI01
aI01
aI01
aI01
aI01
aI01
aI01
aI01
aI01
aI01
aI01
aI00
aI01
aI01
aI00
aI01
aa(lp75
I01
aI00
aI01
aI00
aI00
aI00
aI00
aI00
aI00
aI00
aI01
aI00
aI00
aI00
aI00
aI01
aI00
aI01
aa(lp76
I01
aI00
aI01
aI01
aI00
aI01
aI01
aI01
aI01
aI00
aI00
aI00
aI00
aI01
aI00
aI01
aI00
aI01
aa(lp77
I01
aI00
aI00
aI00
aI00
aI00
aI00
aI00
aI00
aI00
aI01
aI00
aI00
aI01
aI00
aI01
aI00
aI01
aa(lp78
I01
aI00
aI01
aI01
aI00
aI01
aI01
aI01
aI01
aI01
aI01
aI01
aI00
aI00
aI00
aI01
aI00
aI01
aa(lp79
I01
aI00
aI01
aI00
aI00
aI00
aI00
aI00
aI00
aI00
aI00
aI00
aI00
aI01
aI00
aI01
aI00
aI01
aa(lp80
I01
aI01
aI01
aI01
aI01
aI01
aI01
aI00
aI01
aI01
aI01
aI01
aI01
aI01
aI00
aI00
aI00
aI01
aa(lp81
I01
aI00
aI00
aI00
aI00
aI00
aI00
aI00
aI00
aI00
aI00
aI00
aI00
aI00
aI00
aI01
aI00
aI01
aa(lp82
I01
aI01
aI00
aI01
aI01
aI01
aI01
aI01
aI01
aI01
aI01
aI00
aI01
aI01
aI01
aI01
aI00
aI01
aa(lp83
I01
aI00
aI00
aI01
aI00
aI00
aI00
aI01
aI00
aI00
aI01
aI00
aI01
aI00
aI00
aI01
aI00
aI01
aa(lp84
I01
aI00
aI00
aI01
aI00
aI01
aI00
aI00
aI00
aI00
aI00
aI00
aI00
aI00
aI00
aI00
aI00
aI01
aa(lp85
I01
aI00
aI00
aI00
aI00
aI00
aI00
aI00
aI00
aI00
aI00
aI00
aI01
aI00
aI01
aI00
aI00
aI01
aa(lp86
I01
aI00
aI01
aI00
aI00
aI01
aI00
aI01
aI00
aI00
aI01
aI00
aI00
aI00
aI01
aI00
aI00
aI01
aa(lp87
I01
aI00
aI01
aI01
aI01
aI01
aI00
aI01
aI01
aI01
aI01
aI01
aI01
aI01
aI01
aI00
aI01
aI01
aa(lp88
I01
aI00
aI01
aI00
aI00
aI00
aI00
aI00
aI00
aI00
aI00
aI00
aI00
aI00
aI00
aI00
aI00
aI01
aa(lp89
I01
aI00
aI00
aI00
aI01
aI01
aI01
aI01
aI01
aI01
aI00
aI01
aI01
aI01
aI01
aI01
aI01
aI01
aa(lp90
I01
aI00
aI01
aI00
aI01
aI00
aI00
aI00
aI00
aI00
aI00
aI00
aI00
aI00
aI00
aI01
aI00
aI01
aa(lp91
I01
aI00
aI01
aI00
aI00
aI00
aI01
aI01
aI01
aI01
aI01
aI01
aI01
aI00
aI01
aI01
aI00
aI01
aa(lp92
I01
aI00
aI01
aI00
aI01
aI00
aI00
aI01
aI00
aI00
aI00
aI00
aI00
aI00
aI00
aI00
aI00
aI01
aa(lp93
I01
aI00
aI01
aI00
aI01
aI00
aI00
aI00
aI00
aI01
aI01
aI01
aI01
aI00
aI01
aI01
aI00
aI01
aa(lp94
I01
aI00
aI01
aI00
aI00
aI00
aI00
aI01
aI00
aI00
aI00
aI00
aI00
aI00
aI00
aI01
aI00
aI01
aa(lp95
I01
aI00
aI01
aI01
aI00
aI01
aI01
aI01
aI01
aI01
aI01
aI01
aI01
aI01
aI01
aI01
aI00
aI01
aa(lp96
I01
aI00
aI01
aI00
aI00
aI00
aI00
aI00
aI00
aI00
aI00
aI01
aI00
aI01
aI00
aI01
aI00
aI01
aa(lp97
I01
aI00
aI01
aI00
aI00
aI00
aI01
aI00
aI01
aI00
aI00
aI00
aI00
aI00
aI00
aI01
aI00
aI01
aa(lp98
I01
aI01
aI01
aI01
aI01
aI01
aI01
aI00
aI01
aI01
aI00
aI01
aI01
aI01
aI00
aI01
aI01
aI01
aa(lp99
I01
aI00
aI01
aI00
aI00
aI00
aI01
aI00
aI00
aI00
aI00
aI00
aI00
aI01
aI00
aI01
aI00
aI01
aa(lp100
I01
aI00
aI00
aI00
aI00
aI00
aI00
aI00
aI01
aI00
aI00
aI01
aI00
aI00
aI00
aI00
aI00
aI01
aa(lp101
I01
aI01
aI01
aI01
aI01
aI01
aI01
aI01
aI01
aI01
aI01
aI01
aI01
aI01
aI01
aI01
aI01
aI01
aasg53
I18
sbsS'layoutText'
p102
(lp103
S'%%%%%%%%%%%%%%%%%%%%%%%%%%%%%%%%%%'
p104
aS'%..%..  . o ..     %.%..  .   % 4%'
p105
aS'% %%%%%%%%%% %%%     %%% %%%%%%%2%'
p106
aS'%..%  %       %  %%% %.% %.%     %'
p107
aS'%  %. . %% %% %    %o%     %% %% %'
p108
aS'%  %  %     % %% % % % %.% %. %  %'
p109
aS'%.%%% %.. % %      % % % % %% % %%'
p110
aS'%     %% %%.%.%%  %%.  % %.% .   %'
p111
aS'%% %% %.. % % %    % %.% % %  %  %'
p112
aS'%  %  % % %.% %    % % % ..% %% %%'
p113
aS'%   . %.% %  .%%  %%.%.%% %%     %'
p114
aS'%% % %% % % % %      % % ..% %%%.%'
p115
aS'%  % .% %.% % % % %% %     %  %  %'
p116
aS'% %% %%     %o%    % %% %% . .%  %'
p117
aS'%     %.% %.% %%%  %       %  %..%'
p118
aS'%1%%%%%%% %%%     %%% %%%%%%%%%% %'
p119
aS'%3 %   .  ..%.%     .. o .  ..%..%'
p120
aS'%%%%%%%%%%%%%%%%%%%%%%%%%%%%%%%%%%'
p121
asbsS'blueTeamName'
p122
S'HAL9001'
p123
sS'actions'
p124
(lp125
(I0
S'North'
p126
tp127
a(I1
S'South'
p128
tp129
a(I2
S'East'
p130
tp131
a(I3
g128
tp132
a(I0
g126
tp133
a(I1
g128
tp134
a(I2
S'Stop'
p135
tp136
a(I3
g128
tp137
a(I0
g126
tp138
a(I1
g128
tp139
a(I2
g135
tp140
a(I3
g128
tp141
a(I0
g130
tp142
a(I1
S'West'
p143
tp144
a(I2
g135
tp145
a(I3
g128
tp146
a(I0
g126
tp147
a(I1
g128
tp148
a(I2
g135
tp149
a(I3
g143
tp150
a(I0
g126
tp151
a(I1
g128
tp152
a(I2
g135
tp153
a(I3
g128
tp154
a(I0
g130
tp155
a(I1
g143
tp156
a(I2
g135
tp157
a(I3
g128
tp158
a(I0
g130
tp159
a(I1
g143
tp160
a(I2
g135
tp161
a(I3
g128
tp162
a(I0
g126
tp163
a(I1
g128
tp164
a(I2
g135
tp165
a(I3
g128
tp166
a(I0
g130
tp167
a(I1
g143
tp168
a(I2
g135
tp169
a(I3
g128
tp170
a(I0
g126
tp171
a(I1
g128
tp172
a(I2
g135
tp173
a(I3
g143
tp174
a(I0
g126
tp175
a(I1
g128
tp176
a(I2
g135
tp177
a(I3
g143
tp178
a(I0
g126
tp179
a(I1
g128
tp180
a(I2
g135
tp181
a(I3
g143
tp182
a(I0
g126
tp183
a(I1
g128
tp184
a(I2
g135
tp185
a(I3
g128
tp186
a(I0
g126
tp187
a(I1
g128
tp188
a(I2
g143
tp189
a(I3
g128
tp190
a(I0
g130
tp191
a(I1
g143
tp192
a(I2
g126
tp193
a(I3
g128
tp194
a(I0
g130
tp195
a(I1
g143
tp196
a(I2
g126
tp197
a(I3
g143
tp198
a(I0
g126
tp199
a(I1
g128
tp200
a(I2
g126
tp201
a(I3
g143
tp202
a(I0
g130
tp203
a(I1
g143
tp204
a(I2
g126
tp205
a(I3
g128
tp206
a(I0
g130
tp207
a(I1
g143
tp208
a(I2
g130
tp209
a(I3
g143
tp210
a(I0
g130
tp211
a(I1
g143
tp212
a(I2
g126
tp213
a(I3
g143
tp214
a(I0
g130
tp215
a(I1
g143
tp216
a(I2
g126
tp217
a(I3
g143
tp218
a(I0
g130
tp219
a(I1
g143
tp220
a(I2
g126
tp221
a(I3
g143
tp222
a(I0
g126
tp223
a(I1
g128
tp224
a(I2
g126
tp225
a(I3
g143
tp226
a(I0
g126
tp227
a(I1
g128
tp228
a(I2
g126
tp229
a(I3
g128
tp230
a(I0
g130
tp231
a(I1
g143
tp232
a(I2
g130
tp233
a(I3
g128
tp234
a(I0
g130
tp235
a(I1
g143
tp236
a(I2
g130
tp237
a(I3
g143
tp238
a(I0
g130
tp239
a(I1
g143
tp240
a(I2
g130
tp241
a(I3
g143
tp242
a(I0
g130
tp243
a(I1
g143
tp244
a(I2
g126
tp245
a(I3
g143
tp246
a(I0
g130
tp247
a(I1
g143
tp248
a(I2
g126
tp249
a(I3
g143
tp250
a(I0
g128
tp251
a(I1
g143
tp252
a(I2
g126
tp253
a(I3
g143
tp254
a(I0
g130
tp255
a(I1
g126
tp256
a(I2
g130
tp257
a(I3
g143
tp258
a(I0
g130
tp259
a(I1
g143
tp260
a(I2
g130
tp261
a(I3
g126
tp262
a(I0
g130
tp263
a(I1
g143
tp264
a(I2
g126
tp265
a(I3
g143
tp266
a(I0
g126
tp267
a(I1
g128
tp268
a(I2
g130
tp269
a(I3
g143
tp270
a(I0
g128
tp271
a(I1
g126
tp272
a(I2
g130
tp273
a(I3
g126
tp274
a(I0
g128
tp275
a(I1
g126
tp276
a(I2
g130
tp277
a(I3
g126
tp278
a(I0
g128
tp279
a(I1
g126
tp280
a(I2
g130
tp281
a(I3
g126
tp282
a(I0
g128
tp283
a(I1
g126
tp284
a(I2
g130
tp285
a(I3
g126
tp286
a(I0
g128
tp287
a(I1
g126
tp288
a(I2
g126
tp289
a(I3
g126
tp290
a(I0
g128
tp291
a(I1
g126
tp292
a(I2
g128
tp293
a(I3
g143
tp294
a(I0
g128
tp295
a(I1
g143
tp296
a(I2
g130
tp297
a(I3
g143
tp298
a(I0
g128
tp299
a(I1
g143
tp300
a(I2
g128
tp301
a(I3
g126
tp302
a(I0
g128
tp303
a(I1
g126
tp304
a(I2
g128
tp305
a(I3
g128
tp306
a(I0
g126
tp307
a(I1
g126
tp308
a(I2
g128
tp309
a(I3
g128
tp310
a(I0
g126
tp311
a(I1
g126
tp312
a(I2
g128
tp313
a(I3
g128
tp314
a(I0
g126
tp315
a(I1
g126
tp316
a(I2
g128
tp317
a(I3
g128
tp318
a(I0
g130
tp319
a(I1
g126
tp320
a(I2
g128
tp321
a(I3
g128
tp322
a(I0
g130
tp323
a(I1
g143
tp324
a(I2
g128
tp325
a(I3
g126
tp326
a(I0
g128
tp327
a(I1
g143
tp328
a(I2
g128
tp329
a(I3
g143
tp330
a(I0
g128
tp331
a(I1
g143
tp332
a(I2
g128
tp333
a(I3
g143
tp334
a(I0
g128
tp335
a(I1
g128
tp336
a(I2
g128
tp337
a(I3
g126
tp338
a(I0
g128
tp339
a(I1
g143
tp340
a(I2
g128
tp341
a(I3
g128
tp342
a(I0
g128
tp343
a(I1
g126
tp344
a(I2
g128
tp345
a(I3
g143
tp346
a(I0
g130
tp347
a(I1
g126
tp348
a(I2
g130
tp349
a(I3
g143
tp350
a(I0
g130
tp351
a(I1
g143
tp352
a(I2
g130
tp353
a(I3
g128
tp354
a(I0
g126
tp355
a(I1
g143
tp356
a(I2
g130
tp357
a(I3
g126
tp358
a(I0
g130
tp359
a(I1
g143
tp360
a(I2
g128
tp361
a(I3
g130
tp362
a(I0
g130
tp363
a(I1
g128
tp364
a(I2
g130
tp365
a(I3
g130
tp366
a(I0
g128
tp367
a(I1
g130
tp368
a(I2
g130
tp369
a(I3
g128
tp370
a(I0
g128
tp371
a(I1
g128
tp372
a(I2
g130
tp373
a(I3
g128
tp374
a(I0
g130
tp375
a(I1
g128
tp376
a(I2
g130
tp377
a(I3
g128
tp378
a(I0
g130
tp379
a(I1
g128
tp380
a(I2
g130
tp381
a(I3
g130
tp382
a(I0
g130
tp383
a(I1
g128
tp384
a(I2
g130
tp385
a(I3
g130
tp386
a(I0
g126
tp387
a(I1
g128
tp388
a(I2
g130
tp389
a(I3
g143
tp390
a(I0
g143
tp391
a(I1
g143
tp392
a(I2
g130
tp393
a(I3
g143
tp394
a(I0
g126
tp395
a(I1
g143
tp396
a(I2
g130
tp397
a(I3
g143
tp398
a(I0
g126
tp399
a(I1
g143
tp400
a(I2
g130
tp401
a(I3
g143
tp402
a(I0
g126
tp403
a(I1
g126
tp404
a(I2
g130
tp405
a(I3
g130
tp406
a(I0
g126
tp407
a(I1
g126
tp408
a(I2
g130
tp409
a(I3
g130
tp410
a(I0
g126
tp411
a(I1
g126
tp412
a(I2
g130
tp413
a(I3
g126
tp414
a(I0
g130
tp415
a(I1
g143
tp416
a(I2
g143
tp417
a(I3
g126
tp418
a(I0
g126
tp419
a(I1
g126
tp420
a(I2
g143
tp421
a(I3
g126
tp422
a(I0
g126
tp423
a(I1
g126
tp424
a(I2
g143
tp425
a(I3
g126
tp426
a(I0
g143
tp427
a(I1
g126
tp428
a(I2
g143
tp429
a(I3
g126
tp430
a(I0
g130
tp431
a(I1
g126
tp432
a(I2
g143
tp433
a(I3
g126
tp434
a(I0
g128
tp435
a(I1
g130
tp436
a(I2
g143
tp437
a(I3
g126
tp438
a(I0
g128
tp439
a(I1
g143
tp440
a(I2
g143
tp441
a(I3
g126
tp442
a(I0
g130
tp443
a(I1
g126
tp444
a(I2
g143
tp445
a(I3
g143
tp446
a(I0
g130
tp447
a(I1
g126
tp448
a(I2
g126
tp449
a(I3
g143
tp450
a(I0
g128
tp451
a(I1
g130
tp452
a(I2
g126
tp453
a(I3
g130
tp454
a(I0
g128
tp455
a(I1
g143
tp456
a(I2
g130
tp457
a(I3
g126
tp458
a(I0
g128
tp459
a(I1
g128
tp460
a(I2
g130
tp461
a(I3
g126
tp462
a(I0
g130
tp463
a(I1
g128
tp464
a(I2
g126
tp465
a(I3
g143
tp466
a(I0
g128
tp467
a(I1
g128
tp468
a(I2
g126
tp469
a(I3
g126
tp470
a(I0
g128
tp471
a(I1
g128
tp472
a(I2
g130
tp473
a(I3
g126
tp474
a(I0
g128
tp475
a(I1
g128
tp476
a(I2
g126
tp477
a(I3
g143
tp478
a(I0
g128
tp479
a(I1
g128
tp480
a(I2
g130
tp481
a(I3
g143
tp482
a(I0
g143
tp483
a(I1
g130
tp484
a(I2
g126
tp485
a(I3
g128
tp486
a(I0
g130
tp487
a(I1
g130
tp488
a(I2
g126
tp489
a(I3
g128
tp490
a(I0
g128
tp491
a(I1
g130
tp492
a(I2
g130
tp493
a(I3
g128
tp494
a(I0
g128
tp495
a(I1
g130
tp496
a(I2
g126
tp497
a(I3
g128
tp498
a(I0
g143
tp499
a(I1
g126
tp500
a(I2
g126
tp501
a(I3
g128
tp502
a(I0
g130
tp503
a(I1
g126
tp504
a(I2
g126
tp505
a(I3
g128
tp506
a(I0
g126
tp507
a(I1
g126
tp508
a(I2
g126
tp509
a(I3
g143
tp510
a(I0
g126
tp511
a(I1
g130
tp512
a(I2
g126
tp513
a(I3
g128
tp514
a(I0
g126
tp515
a(I1
g130
tp516
a(I2
g126
tp517
a(I3
g128
tp518
a(I0
g126
tp519
a(I1
g128
tp520
a(I2
g128
tp521
a(I3
g130
tp522
a(I0
g126
tp523
a(I1
g130
tp524
a(I2
g143
tp525
a(I3
g143
tp526
a(I0
g126
tp527
a(I1
g128
tp528
a(I2
g143
tp529
a(I3
g126
tp530
a(I0
g143
tp531
a(I1
g128
tp532
a(I2
g128
tp533
a(I3
g126
tp534
a(I0
g143
tp535
a(I1
g128
tp536
a(I2
g126
tp537
a(I3
g130
tp538
a(I0
g143
tp539
a(I1
g143
tp540
a(I2
g143
tp541
a(I3
g126
tp542
a(I0
g143
tp543
a(I1
g128
tp544
a(I2
g143
tp545
a(I3
g126
tp546
a(I0
g128
tp547
a(I1
g128
tp548
a(I2
g126
tp549
a(I3
g126
tp550
a(I0
g128
tp551
a(I1
g126
tp552
a(I2
g128
tp553
a(I3
g126
tp554
a(I0
g128
tp555
a(I1
g126
tp556
a(I2
g130
tp557
a(I3
g126
tp558
a(I0
g143
tp559
a(I1
g130
tp560
a(I2
g130
tp561
a(I3
g126
tp562
a(I0
g143
tp563
a(I1
g126
tp564
a(I2
g126
tp565
a(I3
g130
tp566
a(I0
g126
tp567
a(I1
g126
tp568
a(I2
g126
tp569
a(I3
g130
tp570
a(I0
g126
tp571
a(I1
g126
tp572
a(I2
g126
tp573
a(I3
g126
tp574
a(I0
g143
tp575
a(I1
g130
tp576
a(I2
g143
tp577
asS'length'
p578
I1200
sS'agents'
p579
(lp580
(igame
Agent
p581
(dp582
S'index'
p583
I0
sba(igame
Agent
p584
(dp585
g583
I0
sba(igame
Agent
p586
(dp587
g583
I0
sba(igame
Agent
p588
(dp589
g583
I0
sbasS'redTeamName'
p590
S'SteelBeard'
p591
s.