(dp1
S'layout'
p2
(ilayout
Layout
p3
(dp4
S'capsules'
p5
(lp6
(I7
I6
tp7
a(I23
I6
tp8
a(I10
I11
tp9
a(I26
I11
tp10
asS'numGhosts'
p11
I4
sS'food'
p12
(igame
Grid
p13
(dp14
S'CELLS_PER_INT'
p15
I30
sS'width'
p16
I34
sS'data'
p17
(lp18
(lp19
I00
aI00
aI00
aI00
aI00
aI00
aI00
aI00
aI00
aI00
aI00
aI00
aI00
aI00
aI00
aI00
aI00
aI00
aa(lp20
I00
aI00
aI00
aI00
aI00
aI00
aI00
aI00
aI00
aI00
aI00
aI00
aI00
aI00
aI00
aI00
aI00
aI00
aa(lp21
I00
aI00
aI00
aI00
aI00
aI00
aI00
aI00
aI00
aI00
aI00
aI00
aI00
aI00
aI00
aI00
aI00
aI00
aa(lp22
I00
aI00
aI00
aI00
aI00
aI00
aI00
aI00
aI00
aI00
aI00
aI00
aI00
aI00
aI00
aI00
aI00
aI00
aa(lp23
I00
aI00
aI00
aI00
aI00
aI00
aI00
aI00
aI00
aI00
aI00
aI00
aI00
aI00
aI00
aI00
aI00
aI00
aa(lp24
I00
aI00
aI00
aI00
aI00
aI00
aI00
aI00
aI01
aI00
aI00
aI00
aI00
aI00
aI00
aI00
aI01
aI00
aa(lp25
I00
aI00
aI00
aI00
aI00
aI00
aI00
aI00
aI00
aI00
aI00
aI00
aI00
aI00
aI01
aI00
aI00
aI00
aa(lp26
I00
aI00
aI00
aI00
aI01
aI01
aI00
aI00
aI00
aI00
aI00
aI01
aI01
aI00
aI00
aI01
aI00
aI00
aa(lp27
I00
aI01
aI00
aI00
aI01
aI00
aI00
aI00
aI00
aI00
aI00
aI00
aI00
aI01
aI00
aI00
aI00
aI00
aa(lp28
I00
aI00
aI00
aI00
aI00
aI00
aI00
aI00
aI00
aI00
aI00
aI00
aI00
aI00
aI00
aI00
aI00
aI00
aa(lp29
I00
aI00
aI00
aI00
aI00
aI00
aI01
aI00
aI00
aI01
aI00
aI00
aI00
aI01
aI01
aI00
aI01
aI00
aa(lp30
I00
aI01
aI00
aI00
aI00
aI00
aI00
aI00
aI00
aI00
aI00
aI00
aI00
aI00
aI00
aI00
aI01
aI00
aa(lp31
I00
aI00
aI00
aI00
aI00
aI00
aI00
aI01
aI00
aI01
aI01
aI00
aI00
aI00
aI01
aI00
aI01
aI00
aa(lp32
I00
aI00
aI00
aI00
aI00
aI00
aI00
aI00
aI00
aI00
aI00
aI00
aI00
aI00
aI00
aI00
aI00
aI00
aa(lp33
I00
aI01
aI01
aI00
aI01
aI01
aI00
aI00
aI01
aI01
aI00
aI01
aI00
aI00
aI00
aI00
aI00
aI00
aa(lp34
I00
aI00
aI00
aI00
aI00
aI00
aI00
aI00
aI00
aI00
aI00
aI00
aI00
aI00
aI00
aI00
aI00
aI00
aa(lp35
I00
aI00
aI00
aI00
aI00
aI00
aI00
aI00
aI00
aI00
aI00
aI00
aI00
aI00
aI00
aI00
aI00
aI00
aa(lp36
I00
aI00
aI00
aI00
aI00
aI00
aI00
aI00
aI00
aI00
aI00
aI00
aI00
aI00
aI00
aI00
aI00
aI00
aa(lp37
I00
aI00
aI00
aI00
aI00
aI00
aI00
aI00
aI00
aI00
aI00
aI00
aI00
aI00
aI00
aI00
aI00
aI00
aa(lp38
I00
aI00
aI00
aI00
aI00
aI00
aI01
aI00
aI01
aI01
aI00
aI00
aI01
aI01
aI00
aI01
aI01
aI00
aa(lp39
I00
aI00
aI00
aI00
aI00
aI00
aI00
aI00
aI00
aI00
aI00
aI00
aI00
aI00
aI00
aI00
aI00
aI00
aa(lp40
I00
aI01
aI00
aI01
aI00
aI00
aI00
aI01
aI01
aI00
aI01
aI00
aI00
aI00
aI00
aI00
aI00
aI00
aa(lp41
I00
aI01
aI00
aI00
aI00
aI00
aI00
aI00
aI00
aI00
aI00
aI00
aI00
aI00
aI00
aI00
aI01
aI00
aa(lp42
I00
aI01
aI00
aI01
aI01
aI00
aI00
aI00
aI01
aI00
aI00
aI01
aI00
aI00
aI00
aI00
aI00
aI00
aa(lp43
I00
aI00
aI00
aI00
aI00
aI00
aI00
aI00
aI00
aI00
aI00
aI00
aI00
aI00
aI00
aI00
aI00
aI00
aa(lp44
I00
aI00
aI00
aI00
aI01
aI00
aI00
aI00
aI00
aI00
aI00
aI00
aI00
aI01
aI00
aI00
aI01
aI00
aa(lp45
I00
aI00
aI01
aI00
aI00
aI01
aI01
aI00
aI00
aI00
aI00
aI00
aI01
aI01
aI00
aI00
aI00
aI00
aa(lp46
I00
aI00
aI00
aI01
aI00
aI00
aI00
aI00
aI00
aI00
aI00
aI00
aI00
aI00
aI00
aI00
aI00
aI00
aa(lp47
I00
aI01
aI00
aI00
aI00
aI00
aI00
aI00
aI00
aI01
aI00
aI00
aI00
aI00
aI00
aI00
aI00
aI00
aa(lp48
I00
aI00
aI00
aI00
aI00
aI00
aI00
aI00
aI00
aI00
aI00
aI00
aI00
aI00
aI00
aI00
aI00
aI00
aa(lp49
I00
aI00
aI00
aI00
aI00
aI00
aI00
aI00
aI00
aI00
aI00
aI00
aI00
aI00
aI00
aI00
aI00
aI00
aa(lp50
I00
aI00
aI00
aI00
aI00
aI00
aI00
aI00
aI00
aI00
aI00
aI00
aI00
aI00
aI00
aI00
aI00
aI00
aa(lp51
I00
aI00
aI00
aI00
aI00
aI00
aI00
aI00
aI00
aI00
aI00
aI00
aI00
aI00
aI00
aI00
aI00
aI00
aa(lp52
I00
aI00
aI00
aI00
aI00
aI00
aI00
aI00
aI00
aI00
aI00
aI00
aI00
aI00
aI00
aI00
aI00
aI00
aasS'height'
p53
I18
sbsS'agentPositions'
p54
(lp55
(I00
(I1
I2
tp56
tp57
a(I00
(I32
I15
tp58
tp59
a(I00
(I1
I1
tp60
tp61
a(I00
(I32
I16
tp62
tp63
asg53
I18
sg16
I34
sS'walls'
p64
(igame
Grid
p65
(dp66
g15
I30
sg16
I34
sg17
(lp67
(lp68
I01
aI01
aI01
aI01
aI01
aI01
aI01
aI01
aI01
aI01
aI01
aI01
aI01
aI01
aI01
aI01
aI01
aI01
aa(lp69
I01
aI00
aI00
aI00
aI00
aI00
aI00
aI00
aI00
aI00
aI00
aI00
aI00
aI00
aI00
aI00
aI00
aI01
aa(lp70
I01
aI01
aI01
aI01
aI01
aI01
aI01
aI01
aI01
aI01
aI01
aI01
aI01
aI01
aI01
aI01
aI00
aI01
aa(lp71
I01
aI00
aI00
aI00
aI00
aI00
aI00
aI00
aI00
aI00
aI00
aI00
aI01
aI00
aI00
aI00
aI00
aI01
aa(lp72
I01
aI00
aI01
aI01
aI01
aI01
aI00
aI01
aI01
aI01
aI01
aI00
aI00
aI00
aI01
aI00
aI01
aI01
aa(lp73
I01
aI00
aI00
aI01
aI00
aI00
aI00
aI00
aI00
aI00
aI00
aI00
aI01
aI00
aI00
aI00
aI00
aI01
aa(lp74
I01
aI00
aI00
aI01
aI01
aI01
aI01
aI01
aI01
aI01
aI01
aI01
aI01
aI01
aI00
aI01
aI01
aI01
aa(lp75
I01
aI00
aI01
aI01
aI00
aI00
aI00
aI00
aI00
aI00
aI00
aI00
aI00
aI00
aI00
aI00
aI00
aI01
aa(lp76
I01
aI00
aI00
aI01
aI00
aI01
aI00
aI00
aI01
aI00
aI00
aI00
aI00
aI00
aI00
aI00
aI00
aI01
aa(lp77
I01
aI00
aI00
aI01
aI01
aI01
aI00
aI01
aI01
aI00
aI01
aI01
aI01
aI01
aI01
aI01
aI01
aI01
aa(lp78
I01
aI01
aI00
aI01
aI00
aI00
aI00
aI00
aI01
aI00
aI00
aI00
aI00
aI00
aI00
aI00
aI00
aI01
aa(lp79
I01
aI00
aI00
aI01
aI00
aI01
aI01
aI00
aI01
aI01
aI01
aI01
aI01
aI01
aI00
aI01
aI00
aI01
aa(lp80
I01
aI00
aI00
aI00
aI00
aI01
aI00
aI00
aI01
aI00
aI00
aI00
aI00
aI00
aI00
aI01
aI00
aI01
aa(lp81
I01
aI01
aI01
aI00
aI00
aI01
aI00
aI01
aI01
aI01
aI01
aI01
aI01
aI01
aI01
aI01
aI01
aI01
aa(lp82
I01
aI00
aI00
aI00
aI00
aI00
aI00
aI01
aI00
aI00
aI00
aI00
aI00
aI00
aI00
aI00
aI00
aI01
aa(lp83
I01
aI01
aI01
aI01
aI00
aI01
aI01
aI01
aI01
aI01
aI01
aI01
aI01
aI01
aI01
aI01
aI00
aI01
aa(lp84
I01
aI00
aI00
aI00
aI00
aI00
aI00
aI00
aI00
aI00
aI00
aI00
aI00
aI00
aI00
aI00
aI00
aI01
aa(lp85
I01
aI00
aI00
aI00
aI00
aI00
aI00
aI00
aI00
aI00
aI00
aI00
aI00
aI00
aI00
aI00
aI00
aI01
aa(lp86
I01
aI00
aI01
aI01
aI01
aI01
aI01
aI01
aI01
aI01
aI01
aI01
aI01
aI00
aI01
aI01
aI01
aI01
aa(lp87
I01
aI00
aI00
aI00
aI00
aI00
aI00
aI00
aI00
aI00
aI01
aI00
aI00
aI00
aI00
aI00
aI00
aI01
aa(lp88
I01
aI01
aI01
aI01
aI01
aI01
aI01
aI01
aI01
aI01
aI01
aI00
aI01
aI00
aI00
aI01
aI01
aI01
aa(lp89
I01
aI00
aI01
aI00
aI00
aI00
aI00
aI00
aI00
aI01
aI00
aI00
aI01
aI00
aI00
aI00
aI00
aI01
aa(lp90
I01
aI00
aI01
aI00
aI01
aI01
aI01
aI01
aI01
aI01
aI00
aI01
aI01
aI00
aI01
aI00
aI00
aI01
aa(lp91
I01
aI00
aI00
aI00
aI00
aI00
aI00
aI00
aI00
aI01
aI00
aI00
aI00
aI00
aI01
aI00
aI01
aI01
aa(lp92
I01
aI01
aI01
aI01
aI01
aI01
aI01
aI01
aI00
aI01
aI01
aI00
aI01
aI01
aI01
aI00
aI00
aI01
aa(lp93
I01
aI00
aI00
aI00
aI00
aI00
aI00
aI00
aI00
aI01
aI00
aI00
aI01
aI00
aI01
aI00
aI00
aI01
aa(lp94
I01
aI00
aI00
aI00
aI00
aI00
aI00
aI00
aI00
aI00
aI00
aI00
aI00
aI00
aI01
aI01
aI00
aI01
aa(lp95
I01
aI01
aI01
aI00
aI01
aI01
aI01
aI01
aI01
aI01
aI01
aI01
aI01
aI01
aI01
aI00
aI00
aI01
aa(lp96
I01
aI00
aI00
aI00
aI00
aI01
aI00
aI00
aI00
aI00
aI00
aI00
aI00
aI00
aI01
aI00
aI00
aI01
aa(lp97
I01
aI01
aI00
aI01
aI00
aI00
aI00
aI01
aI01
aI01
aI01
aI00
aI01
aI01
aI01
aI01
aI00
aI01
aa(lp98
I01
aI00
aI00
aI00
aI00
aI01
aI00
aI00
aI00
aI00
aI00
aI00
aI00
aI00
aI00
aI00
aI00
aI01
aa(lp99
I01
aI00
aI01
aI01
aI01
aI01
aI01
aI01
aI01
aI01
aI01
aI01
aI01
aI01
aI01
aI01
aI01
aI01
aa(lp100
I01
aI00
aI00
aI00
aI00
aI00
aI00
aI00
aI00
aI00
aI00
aI00
aI00
aI00
aI00
aI00
aI00
aI01
aa(lp101
I01
aI01
aI01
aI01
aI01
aI01
aI01
aI01
aI01
aI01
aI01
aI01
aI01
aI01
aI01
aI01
aI01
aI01
aasg53
I18
sbsS'layoutText'
p102
(lp103
S'%%%%%%%%%%%%%%%%%%%%%%%%%%%%%%%%%%'
p104
aS'%   %.%  %...%    %.% .% .     %4%'
p105
aS'% %   %. % %%% %  %.%     %  % %2%'
p106
aS'% % % .  %. .% %  %   %%%%%%%% % %'
p107
aS'% %   % .%.% % %   .    %..% % % %'
p108
aS'% %% %%. % % % %  %.%%% %%.% % % %'
p109
aS'% %   %. %o% %.%  %   %.  o%   % %'
p110
aS'% % % %  % %.% %  %%%.  %  % % % %'
p111
aS'% % % %   .%.%.%  %.%%%%%% %.% % %'
p112
aS'% % %.% %%%%%%.%  %.%.%.   % % % %'
p113
aS'% % % %  %  .%%%  % %.% %  % % % %'
p114
aS'% %   %o  .%   %  %.% %o% .%   % %'
p115
aS'% % % %.%% %%%.%  % % % % .%% %% %'
p116
aS'% % % %..%    .   % % %.%. %   % %'
p117
aS'% % %%%%%%%%   %  % %. .%  . % % %'
p118
aS'%1% %  %     %.%  % %%% % .%   % %'
p119
aS'%3%     . %. %.%    %...%  %.%   %'
p120
aS'%%%%%%%%%%%%%%%%%%%%%%%%%%%%%%%%%%'
p121
asbsS'blueTeamName'
p122
S'HAL9001'
p123
sS'actions'
p124
(lp125
(I1
S'South'
p126
tp127
a(I2
S'North'
p128
tp129
a(I3
g126
tp130
a(I0
g128
tp131
a(I1
g126
tp132
a(I2
g128
tp133
a(I3
g126
tp134
a(I0
g128
tp135
a(I1
g126
tp136
a(I2
g128
tp137
a(I3
g126
tp138
a(I0
g128
tp139
a(I1
g126
tp140
a(I2
g128
tp141
a(I3
g126
tp142
a(I0
g128
tp143
a(I1
g126
tp144
a(I2
g128
tp145
a(I3
g126
tp146
a(I0
g128
tp147
a(I1
g126
tp148
a(I2
g128
tp149
a(I3
g126
tp150
a(I0
g128
tp151
a(I1
g126
tp152
a(I2
g128
tp153
a(I3
g126
tp154
a(I0
g128
tp155
a(I1
g126
tp156
a(I2
g128
tp157
a(I3
g126
tp158
a(I0
g128
tp159
a(I1
g126
tp160
a(I2
g128
tp161
a(I3
g126
tp162
a(I0
g128
tp163
a(I1
g126
tp164
a(I2
g128
tp165
a(I3
g126
tp166
a(I0
g128
tp167
a(I1
g126
tp168
a(I2
g128
tp169
a(I3
g126
tp170
a(I0
g128
tp171
a(I1
g126
tp172
a(I2
g128
tp173
a(I3
g126
tp174
a(I0
g128
tp175
a(I1
g126
tp176
a(I2
g128
tp177
a(I3
g126
tp178
a(I0
g128
tp179
a(I1
g126
tp180
a(I2
g128
tp181
a(I3
g126
tp182
a(I0
g128
tp183
a(I1
S'West'
p184
tp185
a(I2
g128
tp186
a(I3
g126
tp187
a(I0
S'East'
p188
tp189
a(I1
g184
tp190
a(I2
g188
tp191
a(I3
g184
tp192
a(I0
g188
tp193
a(I1
g128
tp194
a(I2
g188
tp195
a(I3
g184
tp196
a(I0
g126
tp197
a(I1
g184
tp198
a(I2
g126
tp199
a(I3
g128
tp200
a(I0
g188
tp201
a(I1
g184
tp202
a(I2
g188
tp203
a(I3
g184
tp204
a(I0
g188
tp205
a(I1
g128
tp206
a(I2
g188
tp207
a(I3
g184
tp208
a(I0
g126
tp209
a(I1
g184
tp210
a(I2
g126
tp211
a(I3
g128
tp212
a(I0
g188
tp213
a(I1
g184
tp214
a(I2
g188
tp215
a(I3
g184
tp216
a(I0
g188
tp217
a(I1
g128
tp218
a(I2
g188
tp219
a(I3
g184
tp220
a(I0
g126
tp221
a(I1
g128
tp222
a(I2
g126
tp223
a(I3
g128
tp224
a(I0
g126
tp225
a(I1
g128
tp226
a(I2
g126
tp227
a(I3
g128
tp228
a(I0
g126
tp229
a(I1
g128
tp230
a(I2
g126
tp231
a(I3
g128
tp232
a(I0
g126
tp233
a(I1
g128
tp234
a(I2
g126
tp235
a(I3
g128
tp236
a(I0
g126
tp237
a(I1
g128
tp238
a(I2
g126
tp239
a(I3
g128
tp240
a(I0
g126
tp241
a(I1
g128
tp242
a(I2
g126
tp243
a(I3
g128
tp244
a(I0
g126
tp245
a(I1
g128
tp246
a(I2
g126
tp247
a(I3
g128
tp248
a(I0
g126
tp249
a(I1
g184
tp250
a(I2
g126
tp251
a(I3
g128
tp252
a(I0
g188
tp253
a(I1
g184
tp254
a(I2
g188
tp255
a(I3
g184
tp256
a(I0
g188
tp257
a(I1
g184
tp258
a(I2
g188
tp259
a(I3
g184
tp260
a(I0
g188
tp261
a(I1
g128
tp262
a(I2
g188
tp263
a(I3
g184
tp264
a(I0
g126
tp265
a(I1
g128
tp266
a(I2
g126
tp267
a(I3
g128
tp268
a(I0
g126
tp269
a(I1
g184
tp270
a(I2
g126
tp271
a(I3
g128
tp272
a(I0
g188
tp273
a(I1
g184
tp274
a(I2
g188
tp275
a(I3
g184
tp276
a(I0
g188
tp277
a(I1
g184
tp278
a(I2
g188
tp279
a(I3
g184
tp280
a(I0
g188
tp281
a(I1
g184
tp282
a(I2
g188
tp283
a(I3
g184
tp284
a(I0
g188
tp285
a(I1
g184
tp286
a(I2
g188
tp287
a(I3
g184
tp288
a(I0
g188
tp289
a(I1
g184
tp290
a(I2
g188
tp291
a(I3
g184
tp292
a(I0
g188
tp293
a(I1
g184
tp294
a(I2
g188
tp295
a(I3
g184
tp296
a(I0
g188
tp297
a(I1
g128
tp298
a(I2
g188
tp299
a(I3
g184
tp300
a(I0
g126
tp301
a(I1
g128
tp302
a(I2
g126
tp303
a(I3
g126
tp304
a(I0
g126
tp305
a(I1
g128
tp306
a(I2
g126
tp307
a(I3
g126
tp308
a(I0
g126
tp309
a(I1
g184
tp310
a(I2
g126
tp311
a(I3
g126
tp312
a(I0
g188
tp313
a(I1
g184
tp314
a(I2
g188
tp315
a(I3
g126
tp316
a(I0
g188
tp317
a(I1
g126
tp318
a(I2
g188
tp319
a(I3
g126
tp320
a(I0
g128
tp321
a(I1
g126
tp322
a(I2
g128
tp323
a(I3
g126
tp324
a(I0
g128
tp325
a(I1
g126
tp326
a(I2
g128
tp327
a(I3
g126
tp328
a(I0
g128
tp329
a(I1
g128
tp330
a(I2
g128
tp331
a(I3
g126
tp332
a(I0
g128
tp333
a(I1
g128
tp334
a(I2
g128
tp335
a(I3
g126
tp336
a(I0
g128
tp337
a(I1
g128
tp338
a(I2
g128
tp339
a(I3
g188
tp340
a(I0
g128
tp341
a(I1
g188
tp342
a(I2
g128
tp343
a(I3
g126
tp344
a(I0
g128
tp345
a(I1
g184
tp346
a(I2
g128
tp347
a(I3
g184
tp348
a(I0
g128
tp349
a(I1
g126
tp350
a(I2
g126
tp351
a(I3
g128
tp352
a(I0
g126
tp353
a(I1
g126
tp354
a(I2
g126
tp355
a(I3
g126
tp356
a(I0
g126
tp357
a(I1
g126
tp358
a(I2
g126
tp359
a(I3
g188
tp360
a(I0
S'Stop'
p361
tp362
a(I1
g128
tp363
a(I2
g128
tp364
a(I3
g126
tp365
a(I0
g126
tp366
a(I1
g126
tp367
a(I2
g126
tp368
a(I3
g126
tp369
a(I0
g126
tp370
a(I1
g126
tp371
a(I2
g126
tp372
a(I3
g188
tp373
a(I0
g361
tp374
a(I1
g126
tp375
a(I2
g361
tp376
a(I3
g188
tp377
a(I0
g128
tp378
a(I1
g128
tp379
a(I2
g128
tp380
a(I3
g128
tp381
a(I0
g128
tp382
a(I1
g128
tp383
a(I2
g128
tp384
a(I3
g128
tp385
a(I0
g128
tp386
a(I1
g128
tp387
a(I2
g128
tp388
a(I3
g128
tp389
a(I0
g128
tp390
a(I1
g128
tp391
a(I2
g128
tp392
a(I3
g128
tp393
a(I0
g361
tp394
a(I1
g128
tp395
a(I2
g128
tp396
a(I3
g128
tp397
a(I0
g361
tp398
a(I1
g188
tp399
a(I2
g361
tp400
a(I3
g128
tp401
a(I0
g361
tp402
a(I1
g188
tp403
a(I2
g361
tp404
a(I3
g128
tp405
a(I0
g361
tp406
a(I1
g126
tp407
a(I2
g361
tp408
a(I3
g128
tp409
a(I0
g128
tp410
a(I1
g126
tp411
a(I2
g128
tp412
a(I3
g126
tp413
a(I0
g128
tp414
a(I1
g126
tp415
a(I2
g128
tp416
a(I3
g126
tp417
a(I0
g128
tp418
a(I1
g126
tp419
a(I2
g128
tp420
a(I3
g126
tp421
a(I0
g128
tp422
a(I1
g126
tp423
a(I2
g128
tp424
a(I3
g126
tp425
a(I0
g128
tp426
a(I1
g126
tp427
a(I2
g128
tp428
a(I3
g126
tp429
a(I0
g128
tp430
a(I1
g126
tp431
a(I2
g128
tp432
a(I3
g126
tp433
a(I0
g128
tp434
a(I1
g126
tp435
a(I2
g128
tp436
a(I3
g126
tp437
a(I0
g128
tp438
a(I1
g126
tp439
a(I2
g128
tp440
a(I3
g126
tp441
a(I0
g128
tp442
a(I1
g126
tp443
a(I2
g128
tp444
a(I3
g184
tp445
a(I0
g128
tp446
a(I1
g126
tp447
a(I2
g128
tp448
a(I3
g184
tp449
a(I0
g128
tp450
a(I1
g126
tp451
a(I2
g128
tp452
a(I3
g128
tp453
a(I0
g128
tp454
a(I1
g184
tp455
a(I2
g128
tp456
a(I3
g184
tp457
a(I0
g128
tp458
a(I1
g184
tp459
a(I2
g128
tp460
a(I3
g128
tp461
a(I0
g128
tp462
a(I1
g128
tp463
a(I2
g128
tp464
a(I3
g128
tp465
a(I0
g188
tp466
a(I1
g126
tp467
a(I2
g128
tp468
a(I3
g184
tp469
a(I0
g188
tp470
a(I1
g184
tp471
a(I2
g188
tp472
a(I3
g184
tp473
a(I0
g126
tp474
a(I1
g184
tp475
a(I2
g188
tp476
a(I3
g126
tp477
a(I0
g188
tp478
a(I1
g184
tp479
a(I2
g126
tp480
a(I3
g126
tp481
a(I0
g188
tp482
a(I1
g184
tp483
a(I2
g188
tp484
a(I3
g126
tp485
a(I0
g126
tp486
a(I1
g128
tp487
a(I2
g188
tp488
a(I3
g128
tp489
a(I0
g188
tp490
a(I1
g128
tp491
a(I2
g126
tp492
a(I3
g128
tp493
a(I0
g188
tp494
a(I1
g184
tp495
a(I2
g188
tp496
a(I3
g184
tp497
a(I0
g126
tp498
a(I1
g184
tp499
a(I2
g188
tp500
a(I3
g184
tp501
a(I0
g126
tp502
a(I1
g128
tp503
a(I2
g126
tp504
a(I3
g126
tp505
a(I0
g126
tp506
a(I1
g184
tp507
a(I2
g126
tp508
a(I3
g126
tp509
a(I0
g126
tp510
a(I1
g361
tp511
a(I2
g126
tp512
a(I3
g184
tp513
a(I0
g126
tp514
a(I1
g126
tp515
a(I2
g126
tp516
a(I3
g128
tp517
a(I0
g126
tp518
a(I1
g126
tp519
a(I2
g126
tp520
a(I3
g184
tp521
a(I0
g126
tp522
a(I1
g126
tp523
a(I2
g126
tp524
a(I3
g184
tp525
a(I0
g188
tp526
a(I1
g188
tp527
a(I2
g126
tp528
a(I3
g184
tp529
a(I0
g126
tp530
a(I1
g184
tp531
a(I2
g126
tp532
a(I3
g126
tp533
a(I0
g188
tp534
a(I1
g128
tp535
a(I2
g188
tp536
a(I3
g188
tp537
a(I0
g188
tp538
a(I1
g128
tp539
a(I2
g188
tp540
a(I3
g128
tp541
a(I0
g126
tp542
a(I1
g128
tp543
a(I2
g188
tp544
a(I3
g188
tp545
a(I0
g126
tp546
a(I1
g128
tp547
a(I2
g126
tp548
a(I3
g188
tp549
a(I0
g188
tp550
a(I1
g128
tp551
a(I2
g126
tp552
a(I3
g188
tp553
a(I0
g188
tp554
a(I1
g128
tp555
a(I2
g188
tp556
a(I3
g128
tp557
a(I0
g188
tp558
a(I1
g128
tp559
a(I2
g188
tp560
a(I3
g188
tp561
a(I0
g188
tp562
a(I1
g128
tp563
a(I2
g188
tp564
a(I3
g128
tp565
a(I0
g188
tp566
a(I1
g128
tp567
a(I2
g128
tp568
a(I3
g188
tp569
a(I0
g188
tp570
a(I1
g188
tp571
a(I2
g128
tp572
a(I3
g128
tp573
a(I0
g188
tp574
a(I1
g184
tp575
a(I2
g128
tp576
a(I3
g126
tp577
a(I0
g128
tp578
a(I1
g126
tp579
a(I2
g128
tp580
a(I3
g188
tp581
a(I0
g128
tp582
a(I1
g126
tp583
a(I2
g128
tp584
a(I3
g188
tp585
a(I0
g128
tp586
a(I1
g126
tp587
a(I2
g128
tp588
a(I3
g188
tp589
a(I0
g128
tp590
a(I1
g126
tp591
a(I2
g128
tp592
a(I3
g128
tp593
a(I0
g128
tp594
a(I1
g126
tp595
a(I2
g128
tp596
a(I3
g128
tp597
a(I0
g128
tp598
a(I1
g126
tp599
a(I2
g128
tp600
a(I3
g128
tp601
a(I0
g128
tp602
a(I1
g188
tp603
a(I2
g128
tp604
a(I3
g128
tp605
a(I0
g128
tp606
a(I1
g126
tp607
a(I2
g128
tp608
a(I3
g128
tp609
a(I0
g128
tp610
a(I1
g188
tp611
a(I2
g128
tp612
a(I3
g128
tp613
a(I0
g188
tp614
a(I1
g188
tp615
a(I2
g128
tp616
a(I3
g128
tp617
a(I0
g188
tp618
a(I1
g126
tp619
a(I2
g128
tp620
a(I3
g128
tp621
a(I0
g126
tp622
a(I1
g126
tp623
a(I2
g128
tp624
a(I3
g128
tp625
a(I0
g126
tp626
a(I1
g188
tp627
a(I2
g188
tp628
a(I3
g188
tp629
a(I0
g188
tp630
a(I1
g188
tp631
a(I2
g188
tp632
a(I3
g188
tp633
a(I0
g188
tp634
a(I1
g188
tp635
a(I2
g126
tp636
a(I3
g126
tp637
a(I0
g126
tp638
a(I1
g188
tp639
a(I2
g188
tp640
a(I3
g126
tp641
a(I0
g188
tp642
a(I1
g188
tp643
a(I2
g188
tp644
a(I3
g188
tp645
a(I0
g188
tp646
a(I1
g188
tp647
a(I2
g126
tp648
a(I3
g188
tp649
a(I0
g128
tp650
a(I1
g128
tp651
a(I2
g188
tp652
a(I3
g126
tp653
a(I0
g188
tp654
a(I1
g128
tp655
a(I2
g188
tp656
a(I3
g188
tp657
a(I0
g188
tp658
a(I1
g188
tp659
a(I2
g126
tp660
a(I3
g188
tp661
a(I0
g188
tp662
a(I1
g126
tp663
a(I2
g126
tp664
a(I3
g128
tp665
a(I0
g128
tp666
a(I1
g184
tp667
a(I2
g126
tp668
a(I3
g128
tp669
a(I0
g128
tp670
a(I1
g126
tp671
a(I2
g126
tp672
a(I3
g128
tp673
a(I0
g184
tp674
a(I1
g184
tp675
a(I2
g126
tp676
a(I3
g184
tp677
a(I0
g361
tp678
a(I1
g184
tp679
a(I2
g126
tp680
a(I3
g184
tp681
a(I0
g361
tp682
a(I1
g184
tp683
a(I2
g126
tp684
a(I3
g184
tp685
a(I0
g361
tp686
a(I1
g184
tp687
a(I2
g188
tp688
a(I3
g184
tp689
a(I0
g188
tp690
a(I1
g184
tp691
a(I2
g126
tp692
a(I3
g184
tp693
a(I0
g184
tp694
a(I1
g184
tp695
a(I2
g188
tp696
a(I3
g184
tp697
a(I0
g361
tp698
a(I1
g361
tp699
a(I2
g188
tp700
a(I3
g128
tp701
a(I0
g361
tp702
a(I1
g188
tp703
a(I2
g126
tp704
a(I3
g184
tp705
a(I0
g361
tp706
a(I1
g188
tp707
a(I2
g126
tp708
a(I3
g128
tp709
a(I0
g361
tp710
a(I1
g126
tp711
a(I2
g188
tp712
a(I3
g128
tp713
a(I0
g188
tp714
a(I1
g126
tp715
a(I2
g188
tp716
a(I3
g184
tp717
a(I0
g184
tp718
a(I1
g126
tp719
a(I2
g188
tp720
a(I3
g184
tp721
a(I0
g361
tp722
a(I1
g128
tp723
a(I2
g188
tp724
a(I3
g126
tp725
a(I0
g188
tp726
a(I1
g128
tp727
a(I2
g188
tp728
a(I3
g126
tp729
a(I0
g184
tp730
a(I1
g128
tp731
a(I2
g188
tp732
a(I3
g126
tp733
a(I0
g188
tp734
a(I1
g184
tp735
a(I2
g188
tp736
a(I3
g126
tp737
a(I0
g126
tp738
a(I1
g184
tp739
a(I2
g128
tp740
a(I3
g126
tp741
a(I0
g126
tp742
a(I1
g128
tp743
a(I2
g128
tp744
a(I3
g126
tp745
a(I0
g126
tp746
a(I1
g128
tp747
a(I2
g128
tp748
a(I3
g126
tp749
a(I0
g126
tp750
a(I1
g184
tp751
a(I2
g126
tp752
a(I3
g126
tp753
a(I0
g126
tp754
a(I1
g184
tp755
a(I2
g126
tp756
a(I3
g128
tp757
a(I0
g126
tp758
a(I1
g128
tp759
a(I2
g128
tp760
a(I3
g128
tp761
a(I0
g126
tp762
a(I1
g184
tp763
a(I2
g128
tp764
a(I3
g128
tp765
a(I0
g126
tp766
a(I1
g128
tp767
a(I2
g128
tp768
a(I3
g128
tp769
a(I0
g184
tp770
a(I1
g128
tp771
a(I2
g128
tp772
a(I3
g128
tp773
a(I0
g126
tp774
a(I1
g128
tp775
a(I2
g128
tp776
a(I3
g128
tp777
a(I0
g188
tp778
a(I1
g128
tp779
a(I2
g128
tp780
a(I3
g128
tp781
a(I0
g126
tp782
a(I1
g128
tp783
a(I2
g128
tp784
a(I3
g128
tp785
a(I0
g188
tp786
a(I1
g128
tp787
a(I2
g128
tp788
a(I3
g188
tp789
a(I0
g188
tp790
a(I1
g128
tp791
a(I2
g188
tp792
a(I3
g188
tp793
a(I0
g126
tp794
a(I1
g184
tp795
a(I2
g188
tp796
a(I3
g126
tp797
a(I0
g126
tp798
a(I1
g188
tp799
a(I2
g128
tp800
a(I3
g126
tp801
a(I0
g361
tp802
a(I1
g128
tp803
a(I2
g128
tp804
a(I3
g126
tp805
a(I0
g128
tp806
a(I1
g126
tp807
a(I2
g128
tp808
a(I3
g126
tp809
a(I0
g128
tp810
a(I1
g184
tp811
a(I2
g126
tp812
a(I3
g126
tp813
a(I0
g184
tp814
a(I1
g184
tp815
a(I2
g126
tp816
a(I3
g126
tp817
a(I0
g184
tp818
a(I1
g128
tp819
a(I2
g188
tp820
a(I3
g126
tp821
a(I0
g126
tp822
a(I1
g128
tp823
a(I2
g188
tp824
a(I3
g126
tp825
a(I0
g128
tp826
a(I1
g126
tp827
a(I2
g128
tp828
a(I3
g126
tp829
a(I0
g128
tp830
a(I1
g126
tp831
a(I2
g128
tp832
a(I3
g126
tp833
a(I0
g128
tp834
a(I1
g188
tp835
a(I2
g188
tp836
a(I3
g126
tp837
a(I0
g184
tp838
a(I1
g188
tp839
a(I2
g126
tp840
a(I3
g126
tp841
a(I0
g128
tp842
a(I1
g188
tp843
a(I2
g188
tp844
a(I3
g184
tp845
a(I0
g128
tp846
a(I1
g126
tp847
a(I2
g188
tp848
a(I3
g184
tp849
a(I0
g128
tp850
a(I1
g126
tp851
a(I2
g128
tp852
a(I3
g128
tp853
a(I0
g184
tp854
a(I1
g126
tp855
a(I2
g188
tp856
a(I3
g128
tp857
a(I0
g184
tp858
a(I1
g126
tp859
a(I2
g188
tp860
a(I3
g184
tp861
a(I0
g126
tp862
a(I1
g126
tp863
a(I2
g188
tp864
a(I3
g184
tp865
a(I0
g126
tp866
a(I1
g188
tp867
a(I2
g188
tp868
a(I3
g128
tp869
a(I0
g126
tp870
a(I1
g188
tp871
a(I2
g188
tp872
a(I3
g184
tp873
a(I0
g126
tp874
a(I1
g128
tp875
a(I2
g188
tp876
a(I3
g184
tp877
a(I0
g126
tp878
a(I1
g128
tp879
a(I2
g126
tp880
a(I3
g126
tp881
a(I0
g126
tp882
a(I1
g128
tp883
a(I2
g126
tp884
a(I3
g184
tp885
a(I0
g126
tp886
a(I1
g128
tp887
a(I2
g126
tp888
a(I3
g184
tp889
a(I0
g184
tp890
a(I1
g128
tp891
a(I2
g126
tp892
a(I3
g128
tp893
a(I0
g184
tp894
a(I1
g188
tp895
a(I2
g126
tp896
a(I3
g184
tp897
a(I0
g188
tp898
a(I1
g188
tp899
a(I2
g184
tp900
a(I3
g128
tp901
a(I0
g188
tp902
a(I1
g184
tp903
a(I2
g184
tp904
a(I3
g128
tp905
a(I0
g128
tp906
a(I1
g184
tp907
a(I2
g126
tp908
a(I3
g128
tp909
a(I0
g128
tp910
a(I1
g128
tp911
a(I2
g126
tp912
a(I3
g128
tp913
a(I0
g184
tp914
a(I1
g128
tp915
a(I2
g126
tp916
a(I3
g128
tp917
a(I0
g184
tp918
asS'length'
p919
I1200
sS'agents'
p920
(lp921
(igame
Agent
p922
(dp923
S'index'
p924
I0
sba(igame
Agent
p925
(dp926
g924
I0
sba(igame
Agent
p927
(dp928
g924
I0
sba(igame
Agent
p929
(dp930
g924
I0
sbasS'redTeamName'
p931
S'TeamStoked'
p932
s.