(dp1
S'layout'
p2
(ilayout
Layout
p3
(dp4
S'capsules'
p5
(lp6
(I25
I1
tp7
a(I32
I2
tp8
a(I1
I15
tp9
a(I8
I16
tp10
asS'numGhosts'
p11
I4
sS'food'
p12
(igame
Grid
p13
(dp14
S'CELLS_PER_INT'
p15
I30
sS'width'
p16
I34
sS'data'
p17
(lp18
(lp19
I00
aI00
aI00
aI00
aI00
aI00
aI00
aI00
aI00
aI00
aI00
aI00
aI00
aI00
aI00
aI00
aI00
aI00
aa(lp20
I00
aI00
aI00
aI00
aI00
aI00
aI00
aI00
aI01
aI00
aI00
aI00
aI00
aI00
aI00
aI00
aI01
aI00
aa(lp21
I00
aI00
aI00
aI00
aI00
aI00
aI00
aI00
aI00
aI01
aI00
aI00
aI00
aI00
aI00
aI01
aI00
aI00
aa(lp22
I00
aI00
aI00
aI00
aI00
aI00
aI00
aI00
aI00
aI00
aI00
aI00
aI01
aI00
aI00
aI00
aI00
aI00
aa(lp23
I00
aI00
aI00
aI00
aI00
aI01
aI01
aI00
aI00
aI00
aI00
aI00
aI01
aI00
aI00
aI00
aI00
aI00
aa(lp24
I00
aI00
aI00
aI00
aI00
aI00
aI00
aI00
aI00
aI00
aI00
aI00
aI00
aI00
aI00
aI00
aI01
aI00
aa(lp25
I00
aI00
aI00
aI00
aI00
aI00
aI00
aI00
aI00
aI00
aI00
aI00
aI00
aI00
aI00
aI00
aI00
aI00
aa(lp26
I00
aI00
aI00
aI00
aI00
aI00
aI00
aI00
aI00
aI00
aI00
aI00
aI00
aI00
aI00
aI00
aI00
aI00
aa(lp27
I00
aI00
aI00
aI01
aI00
aI01
aI00
aI00
aI00
aI00
aI01
aI00
aI00
aI00
aI00
aI00
aI00
aI00
aa(lp28
I00
aI00
aI00
aI00
aI00
aI00
aI00
aI00
aI00
aI00
aI00
aI01
aI00
aI00
aI00
aI00
aI01
aI00
aa(lp29
I00
aI00
aI00
aI00
aI00
aI00
aI00
aI00
aI01
aI00
aI01
aI00
aI00
aI00
aI00
aI00
aI01
aI00
aa(lp30
I00
aI01
aI00
aI01
aI00
aI00
aI00
aI00
aI00
aI00
aI00
aI00
aI01
aI00
aI00
aI00
aI00
aI00
aa(lp31
I00
aI00
aI00
aI00
aI00
aI00
aI00
aI00
aI00
aI00
aI00
aI00
aI01
aI01
aI00
aI01
aI01
aI00
aa(lp32
I00
aI00
aI00
aI00
aI00
aI01
aI00
aI00
aI00
aI00
aI00
aI00
aI00
aI00
aI00
aI00
aI00
aI00
aa(lp33
I00
aI00
aI00
aI00
aI00
aI00
aI00
aI00
aI01
aI00
aI00
aI00
aI00
aI01
aI01
aI00
aI01
aI00
aa(lp34
I00
aI00
aI00
aI00
aI00
aI00
aI00
aI00
aI00
aI00
aI00
aI00
aI00
aI00
aI00
aI00
aI01
aI00
aa(lp35
I00
aI00
aI00
aI00
aI00
aI00
aI00
aI00
aI00
aI00
aI00
aI00
aI00
aI00
aI00
aI00
aI00
aI00
aa(lp36
I00
aI00
aI00
aI00
aI00
aI00
aI00
aI00
aI00
aI00
aI00
aI00
aI00
aI00
aI00
aI00
aI00
aI00
aa(lp37
I00
aI01
aI00
aI00
aI00
aI00
aI00
aI00
aI00
aI00
aI00
aI00
aI00
aI00
aI00
aI00
aI00
aI00
aa(lp38
I00
aI01
aI00
aI01
aI01
aI00
aI00
aI00
aI00
aI01
aI00
aI00
aI00
aI00
aI00
aI00
aI00
aI00
aa(lp39
I00
aI00
aI00
aI00
aI00
aI00
aI00
aI00
aI00
aI00
aI00
aI00
aI01
aI00
aI00
aI00
aI00
aI00
aa(lp40
I00
aI01
aI01
aI00
aI01
aI01
aI00
aI00
aI00
aI00
aI00
aI00
aI00
aI00
aI00
aI00
aI00
aI00
aa(lp41
I00
aI00
aI00
aI00
aI00
aI01
aI00
aI00
aI00
aI00
aI00
aI00
aI00
aI00
aI01
aI00
aI01
aI00
aa(lp42
I00
aI01
aI00
aI00
aI00
aI00
aI00
aI01
aI00
aI01
aI00
aI00
aI00
aI00
aI00
aI00
aI00
aI00
aa(lp43
I00
aI01
aI00
aI00
aI00
aI00
aI01
aI00
aI00
aI00
aI00
aI00
aI00
aI00
aI00
aI00
aI00
aI00
aa(lp44
I00
aI00
aI00
aI00
aI00
aI00
aI00
aI01
aI00
aI00
aI00
aI00
aI01
aI00
aI01
aI00
aI00
aI00
aa(lp45
I00
aI00
aI00
aI00
aI00
aI00
aI00
aI00
aI00
aI00
aI00
aI00
aI00
aI00
aI00
aI00
aI00
aI00
aa(lp46
I00
aI00
aI00
aI00
aI00
aI00
aI00
aI00
aI00
aI00
aI00
aI00
aI00
aI00
aI00
aI00
aI00
aI00
aa(lp47
I00
aI01
aI00
aI00
aI00
aI00
aI00
aI00
aI00
aI00
aI00
aI00
aI00
aI00
aI00
aI00
aI00
aI00
aa(lp48
I00
aI00
aI00
aI00
aI00
aI01
aI00
aI00
aI00
aI00
aI00
aI01
aI01
aI00
aI00
aI00
aI00
aI00
aa(lp49
I00
aI00
aI00
aI00
aI00
aI01
aI00
aI00
aI00
aI00
aI00
aI00
aI00
aI00
aI00
aI00
aI00
aI00
aa(lp50
I00
aI00
aI01
aI00
aI00
aI00
aI00
aI00
aI01
aI00
aI00
aI00
aI00
aI00
aI00
aI00
aI00
aI00
aa(lp51
I00
aI01
aI00
aI00
aI00
aI00
aI00
aI00
aI00
aI01
aI00
aI00
aI00
aI00
aI00
aI00
aI00
aI00
aa(lp52
I00
aI00
aI00
aI00
aI00
aI00
aI00
aI00
aI00
aI00
aI00
aI00
aI00
aI00
aI00
aI00
aI00
aI00
aasS'height'
p53
I18
sbsS'agentPositions'
p54
(lp55
(I00
(I1
I2
tp56
tp57
a(I00
(I32
I15
tp58
tp59
a(I00
(I1
I1
tp60
tp61
a(I00
(I32
I16
tp62
tp63
asg53
I18
sg16
I34
sS'walls'
p64
(igame
Grid
p65
(dp66
g15
I30
sg16
I34
sg17
(lp67
(lp68
I01
aI01
aI01
aI01
aI01
aI01
aI01
aI01
aI01
aI01
aI01
aI01
aI01
aI01
aI01
aI01
aI01
aI01
aa(lp69
I01
aI00
aI00
aI00
aI00
aI00
aI00
aI00
aI00
aI00
aI00
aI00
aI00
aI00
aI00
aI00
aI00
aI01
aa(lp70
I01
aI01
aI01
aI01
aI01
aI01
aI01
aI01
aI01
aI00
aI01
aI01
aI01
aI01
aI00
aI00
aI01
aI01
aa(lp71
I01
aI00
aI00
aI00
aI00
aI00
aI00
aI01
aI00
aI00
aI00
aI01
aI00
aI01
aI00
aI00
aI00
aI01
aa(lp72
I01
aI00
aI00
aI00
aI00
aI00
aI00
aI01
aI00
aI01
aI00
aI00
aI00
aI01
aI00
aI01
aI00
aI01
aa(lp73
I01
aI01
aI00
aI01
aI01
aI01
aI01
aI01
aI00
aI01
aI00
aI01
aI00
aI01
aI00
aI00
aI00
aI01
aa(lp74
I01
aI00
aI00
aI00
aI01
aI00
aI00
aI01
aI00
aI01
aI00
aI01
aI00
aI01
aI00
aI01
aI00
aI01
aa(lp75
I01
aI00
aI00
aI00
aI00
aI00
aI00
aI01
aI00
aI00
aI00
aI01
aI00
aI01
aI00
aI01
aI00
aI01
aa(lp76
I01
aI00
aI01
aI00
aI01
aI00
aI00
aI01
aI00
aI01
aI00
aI01
aI00
aI01
aI00
aI01
aI00
aI01
aa(lp77
I01
aI00
aI00
aI00
aI01
aI00
aI00
aI00
aI00
aI01
aI00
aI00
aI00
aI01
aI00
aI01
aI00
aI01
aa(lp78
I01
aI01
aI00
aI01
aI01
aI00
aI00
aI01
aI00
aI01
aI00
aI01
aI00
aI01
aI00
aI01
aI00
aI01
aa(lp79
I01
aI00
aI00
aI00
aI01
aI00
aI00
aI01
aI01
aI01
aI01
aI01
aI00
aI01
aI00
aI01
aI01
aI01
aa(lp80
I01
aI00
aI01
aI00
aI01
aI00
aI00
aI01
aI00
aI00
aI00
aI00
aI00
aI00
aI00
aI00
aI00
aI01
aa(lp81
I01
aI00
aI00
aI00
aI01
aI00
aI00
aI01
aI00
aI01
aI01
aI01
aI01
aI01
aI01
aI01
aI01
aI01
aa(lp82
I01
aI00
aI01
aI00
aI01
aI00
aI00
aI01
aI00
aI00
aI00
aI00
aI00
aI00
aI00
aI01
aI00
aI01
aa(lp83
I01
aI00
aI01
aI00
aI01
aI00
aI00
aI01
aI01
aI00
aI01
aI01
aI01
aI01
aI01
aI01
aI00
aI01
aa(lp84
I01
aI00
aI01
aI00
aI01
aI00
aI00
aI01
aI00
aI00
aI00
aI00
aI00
aI00
aI00
aI00
aI00
aI01
aa(lp85
I01
aI00
aI00
aI00
aI00
aI00
aI00
aI00
aI00
aI00
aI01
aI00
aI00
aI01
aI00
aI01
aI00
aI01
aa(lp86
I01
aI00
aI01
aI01
aI01
aI01
aI01
aI01
aI00
aI01
aI01
aI00
aI00
aI01
aI00
aI01
aI00
aI01
aa(lp87
I01
aI00
aI01
aI00
aI00
aI00
aI00
aI00
aI00
aI00
aI01
aI00
aI00
aI01
aI00
aI01
aI00
aI01
aa(lp88
I01
aI01
aI01
aI01
aI01
aI01
aI01
aI01
aI01
aI00
aI01
aI00
aI00
aI01
aI00
aI00
aI00
aI01
aa(lp89
I01
aI00
aI00
aI00
aI00
aI00
aI00
aI00
aI00
aI00
aI01
aI00
aI00
aI01
aI00
aI01
aI00
aI01
aa(lp90
I01
aI01
aI01
aI00
aI01
aI00
aI01
aI01
aI01
aI01
aI01
aI00
aI00
aI01
aI00
aI00
aI00
aI01
aa(lp91
I01
aI00
aI01
aI00
aI01
aI00
aI01
aI00
aI01
aI00
aI01
aI00
aI00
aI01
aI01
aI00
aI01
aI01
aa(lp92
I01
aI00
aI01
aI00
aI01
aI00
aI00
aI00
aI01
aI00
aI00
aI00
aI00
aI01
aI00
aI00
aI00
aI01
aa(lp93
I01
aI00
aI01
aI00
aI01
aI00
aI01
aI00
aI01
aI00
aI01
aI00
aI00
aI01
aI00
aI01
aI00
aI01
aa(lp94
I01
aI00
aI01
aI00
aI01
aI00
aI01
aI00
aI00
aI00
aI01
aI00
aI00
aI00
aI00
aI00
aI00
aI01
aa(lp95
I01
aI00
aI01
aI00
aI01
aI00
aI01
aI00
aI01
aI00
aI01
aI00
aI00
aI01
aI00
aI00
aI00
aI01
aa(lp96
I01
aI00
aI00
aI00
aI01
aI00
aI01
aI00
aI01
aI00
aI01
aI01
aI01
aI01
aI01
aI00
aI01
aI01
aa(lp97
I01
aI00
aI01
aI00
aI01
aI00
aI00
aI00
aI01
aI00
aI01
aI00
aI00
aI00
aI00
aI00
aI00
aI01
aa(lp98
I01
aI00
aI00
aI00
aI01
aI00
aI01
aI00
aI00
aI00
aI01
aI00
aI00
aI00
aI00
aI00
aI00
aI01
aa(lp99
I01
aI01
aI00
aI00
aI01
aI01
aI01
aI01
aI00
aI01
aI01
aI01
aI01
aI01
aI01
aI01
aI01
aI01
aa(lp100
I01
aI00
aI00
aI00
aI00
aI00
aI00
aI00
aI00
aI00
aI00
aI00
aI00
aI00
aI00
aI00
aI00
aI01
aa(lp101
I01
aI01
aI01
aI01
aI01
aI01
aI01
aI01
aI01
aI01
aI01
aI01
aI01
aI01
aI01
aI01
aI01
aI01
aasg53
I18
sbsS'layoutText'
p102
(lp103
S'%%%%%%%%%%%%%%%%%%%%%%%%%%%%%%%%%%'
p104
aS'%.%  .  o..%.%..      .%    %  %4%'
p105
aS'%o. % %%%%%%.%%% %%% %   %     %2%'
p106
aS'%            %.%      .% .  %  % %'
p107
aS'% %%%%%%%%%%.%.% %%%%%%%%% %%  % %'
p108
aS'% %..      ..% %    .    .  %. % %'
p109
aS'% %% %%%%.%% % %            %. % %'
p110
aS'% %     . .% % % %%%%%%% %%%%%%% %'
p111
aS'% . %%% %%%% %    %.  %.       %.%'
p112
aS'%.%       .%  .%    % %%%% %%% . %'
p113
aS'% %%%%%%% %%%%%%% % % %. .     % %'
p114
aS'% % .%            % % %%.%%%% %% %'
p115
aS'% % .%  .    .    % %..      ..% %'
p116
aS'% %  %% %%%%%%%%% %.%.%%%%%%%%%% %'
p117
aS'% %  %  . %.      %.%            %'
p118
aS'%1%     %   % %%% %%%.%%%%%% % .o%'
p119
aS'%3%  %    %.      ..%.%..o  .  %.%'
p120
aS'%%%%%%%%%%%%%%%%%%%%%%%%%%%%%%%%%%'
p121
asbsS'blueTeamName'
p122
S'HAL9001'
p123
sS'actions'
p124
(lp125
(I1
S'South'
p126
tp127
a(I2
S'North'
p128
tp129
a(I3
g126
tp130
a(I0
g128
tp131
a(I1
g126
tp132
a(I2
g128
tp133
a(I3
g126
tp134
a(I0
g128
tp135
a(I1
g126
tp136
a(I2
g128
tp137
a(I3
g126
tp138
a(I0
g128
tp139
a(I1
g126
tp140
a(I2
g128
tp141
a(I3
g126
tp142
a(I0
g128
tp143
a(I1
g126
tp144
a(I2
g128
tp145
a(I3
g126
tp146
a(I0
g128
tp147
a(I1
g126
tp148
a(I2
g128
tp149
a(I3
g126
tp150
a(I0
g128
tp151
a(I1
g126
tp152
a(I2
g128
tp153
a(I3
g126
tp154
a(I0
g128
tp155
a(I1
S'West'
p156
tp157
a(I2
g128
tp158
a(I3
g126
tp159
a(I0
S'East'
p160
tp161
a(I1
g156
tp162
a(I2
g160
tp163
a(I3
g156
tp164
a(I0
g160
tp165
a(I1
g128
tp166
a(I2
g160
tp167
a(I3
g156
tp168
a(I0
g126
tp169
a(I1
g156
tp170
a(I2
g126
tp171
a(I3
g128
tp172
a(I0
g160
tp173
a(I1
g156
tp174
a(I2
g160
tp175
a(I3
g156
tp176
a(I0
g160
tp177
a(I1
g156
tp178
a(I2
g160
tp179
a(I3
g156
tp180
a(I0
g160
tp181
a(I1
g156
tp182
a(I2
g160
tp183
a(I3
g156
tp184
a(I0
g160
tp185
a(I1
g156
tp186
a(I2
g160
tp187
a(I3
g156
tp188
a(I0
g160
tp189
a(I1
g156
tp190
a(I2
g160
tp191
a(I3
g156
tp192
a(I0
g160
tp193
a(I1
g128
tp194
a(I2
g160
tp195
a(I3
g156
tp196
a(I0
g126
tp197
a(I1
g128
tp198
a(I2
g126
tp199
a(I3
g128
tp200
a(I0
g126
tp201
a(I1
g156
tp202
a(I2
g126
tp203
a(I3
g128
tp204
a(I0
g160
tp205
a(I1
g156
tp206
a(I2
g160
tp207
a(I3
g156
tp208
a(I0
g160
tp209
a(I1
g156
tp210
a(I2
g160
tp211
a(I3
g156
tp212
a(I0
g160
tp213
a(I1
g156
tp214
a(I2
g160
tp215
a(I3
g156
tp216
a(I0
g160
tp217
a(I1
g156
tp218
a(I2
g160
tp219
a(I3
g156
tp220
a(I0
g160
tp221
a(I1
g156
tp222
a(I2
g160
tp223
a(I3
g156
tp224
a(I0
g160
tp225
a(I1
g156
tp226
a(I2
g160
tp227
a(I3
g156
tp228
a(I0
g160
tp229
a(I1
g156
tp230
a(I2
g160
tp231
a(I3
g156
tp232
a(I0
g160
tp233
a(I1
g126
tp234
a(I2
g160
tp235
a(I3
g156
tp236
a(I0
g128
tp237
a(I1
g126
tp238
a(I2
g128
tp239
a(I3
g126
tp240
a(I0
g128
tp241
a(I1
g160
tp242
a(I2
g128
tp243
a(I3
g126
tp244
a(I0
g156
tp245
a(I1
g126
tp246
a(I2
g128
tp247
a(I3
g126
tp248
a(I0
S'Stop'
p249
tp250
a(I1
g156
tp251
a(I2
g128
tp252
a(I3
g126
tp253
a(I0
g160
tp254
a(I1
g126
tp255
a(I2
g128
tp256
a(I3
g126
tp257
a(I0
g160
tp258
a(I1
g126
tp259
a(I2
g128
tp260
a(I3
g126
tp261
a(I0
g160
tp262
a(I1
g126
tp263
a(I2
g128
tp264
a(I3
g126
tp265
a(I0
g128
tp266
a(I1
g126
tp267
a(I2
g128
tp268
a(I3
g126
tp269
a(I0
g126
tp270
a(I1
g126
tp271
a(I2
g128
tp272
a(I3
g126
tp273
a(I0
g126
tp274
a(I1
g126
tp275
a(I2
g128
tp276
a(I3
g126
tp277
a(I0
g126
tp278
a(I1
g126
tp279
a(I2
g160
tp280
a(I3
g126
tp281
a(I0
g126
tp282
a(I1
g156
tp283
a(I2
g160
tp284
a(I3
g156
tp285
a(I0
g126
tp286
a(I1
g156
tp287
a(I2
g126
tp288
a(I3
g156
tp289
a(I0
g126
tp290
a(I1
g128
tp291
a(I2
g160
tp292
a(I3
g126
tp293
a(I0
g128
tp294
a(I1
g156
tp295
a(I2
g160
tp296
a(I3
g156
tp297
a(I0
g128
tp298
a(I1
g156
tp299
a(I2
g160
tp300
a(I3
g156
tp301
a(I0
g128
tp302
a(I1
g156
tp303
a(I2
g160
tp304
a(I3
g156
tp305
a(I0
g128
tp306
a(I1
g156
tp307
a(I2
g160
tp308
a(I3
g156
tp309
a(I0
g128
tp310
a(I1
g156
tp311
a(I2
g160
tp312
a(I3
g156
tp313
a(I0
g156
tp314
a(I1
g156
tp315
a(I2
g126
tp316
a(I3
g156
tp317
a(I0
g156
tp318
a(I1
g128
tp319
a(I2
g126
tp320
a(I3
g126
tp321
a(I0
g156
tp322
a(I1
g128
tp323
a(I2
g160
tp324
a(I3
g126
tp325
a(I0
g128
tp326
a(I1
g156
tp327
a(I2
g160
tp328
a(I3
g156
tp329
a(I0
g128
tp330
a(I1
g156
tp331
a(I2
g160
tp332
a(I3
g156
tp333
a(I0
g128
tp334
a(I1
g156
tp335
a(I2
g160
tp336
a(I3
g156
tp337
a(I0
g128
tp338
a(I1
g156
tp339
a(I2
g160
tp340
a(I3
g128
tp341
a(I0
g249
tp342
a(I1
g156
tp343
a(I2
g160
tp344
a(I3
g128
tp345
a(I0
g249
tp346
a(I1
g156
tp347
a(I2
g160
tp348
a(I3
g128
tp349
a(I0
g249
tp350
a(I1
g249
tp351
a(I2
g126
tp352
a(I3
g128
tp353
a(I0
g249
tp354
a(I1
g249
tp355
a(I2
g249
tp356
a(I3
g156
tp357
a(I0
g249
tp358
a(I1
g249
tp359
a(I2
g249
tp360
a(I3
g156
tp361
a(I0
g249
tp362
a(I1
g249
tp363
a(I2
g249
tp364
a(I3
g126
tp365
a(I0
g249
tp366
a(I1
g249
tp367
a(I2
g249
tp368
a(I3
g156
tp369
a(I0
g249
tp370
a(I1
g249
tp371
a(I2
g249
tp372
a(I3
g156
tp373
a(I0
g249
tp374
a(I1
g249
tp375
a(I2
g249
tp376
a(I3
g126
tp377
a(I0
g249
tp378
a(I1
g249
tp379
a(I2
g249
tp380
a(I3
g249
tp381
a(I0
g249
tp382
a(I1
g249
tp383
a(I2
g249
tp384
a(I3
g249
tp385
a(I0
g249
tp386
a(I1
g249
tp387
a(I2
g249
tp388
a(I3
g249
tp389
a(I0
g249
tp390
a(I1
g249
tp391
a(I2
g249
tp392
a(I3
g249
tp393
a(I0
g249
tp394
a(I1
g249
tp395
a(I2
g249
tp396
a(I3
g249
tp397
a(I0
g249
tp398
a(I1
g249
tp399
a(I2
g249
tp400
a(I3
g249
tp401
a(I0
g249
tp402
a(I1
g249
tp403
a(I2
g249
tp404
a(I3
g249
tp405
a(I0
g249
tp406
a(I1
g249
tp407
a(I2
g249
tp408
a(I3
g249
tp409
a(I0
g249
tp410
a(I1
g249
tp411
a(I2
g249
tp412
a(I3
g249
tp413
a(I0
g249
tp414
a(I1
g249
tp415
a(I2
g249
tp416
a(I3
g249
tp417
a(I0
g249
tp418
a(I1
g249
tp419
a(I2
g249
tp420
a(I3
g249
tp421
a(I0
g249
tp422
a(I1
g249
tp423
a(I2
g249
tp424
a(I3
g249
tp425
a(I0
g249
tp426
a(I1
g249
tp427
a(I2
g249
tp428
a(I3
g249
tp429
a(I0
g249
tp430
a(I1
g249
tp431
a(I2
g249
tp432
a(I3
g249
tp433
a(I0
g249
tp434
a(I1
g249
tp435
a(I2
g249
tp436
a(I3
g249
tp437
a(I0
g249
tp438
a(I1
g249
tp439
a(I2
g249
tp440
a(I3
g249
tp441
a(I0
g249
tp442
a(I1
g249
tp443
a(I2
g249
tp444
a(I3
g249
tp445
a(I0
g249
tp446
a(I1
g249
tp447
a(I2
g249
tp448
a(I3
g249
tp449
a(I0
g249
tp450
a(I1
g249
tp451
a(I2
g249
tp452
a(I3
g249
tp453
a(I0
g249
tp454
a(I1
g249
tp455
a(I2
g249
tp456
a(I3
g249
tp457
a(I0
g249
tp458
a(I1
g249
tp459
a(I2
g249
tp460
a(I3
g249
tp461
a(I0
g249
tp462
a(I1
g249
tp463
a(I2
g249
tp464
a(I3
g249
tp465
a(I0
g249
tp466
a(I1
g249
tp467
a(I2
g249
tp468
a(I3
g249
tp469
a(I0
g249
tp470
a(I1
g249
tp471
a(I2
g249
tp472
a(I3
g249
tp473
a(I0
g249
tp474
a(I1
g249
tp475
a(I2
g249
tp476
a(I3
g249
tp477
a(I0
g249
tp478
a(I1
g249
tp479
a(I2
g249
tp480
a(I3
g249
tp481
a(I0
g249
tp482
a(I1
g249
tp483
a(I2
g249
tp484
a(I3
g249
tp485
a(I0
g249
tp486
a(I1
g249
tp487
a(I2
g249
tp488
a(I3
g249
tp489
a(I0
g249
tp490
a(I1
g249
tp491
a(I2
g249
tp492
a(I3
g249
tp493
a(I0
g249
tp494
a(I1
g249
tp495
a(I2
g249
tp496
a(I3
g249
tp497
a(I0
g249
tp498
a(I1
g249
tp499
a(I2
g249
tp500
a(I3
g249
tp501
a(I0
g249
tp502
a(I1
g249
tp503
a(I2
g249
tp504
a(I3
g249
tp505
a(I0
g249
tp506
a(I1
g249
tp507
a(I2
g249
tp508
a(I3
g249
tp509
a(I0
g249
tp510
a(I1
g249
tp511
a(I2
g249
tp512
a(I3
g249
tp513
a(I0
g249
tp514
a(I1
g249
tp515
a(I2
g249
tp516
a(I3
g249
tp517
a(I0
g249
tp518
a(I1
g249
tp519
a(I2
g249
tp520
a(I3
g249
tp521
a(I0
g249
tp522
a(I1
g249
tp523
a(I2
g249
tp524
a(I3
g249
tp525
a(I0
g249
tp526
a(I1
g249
tp527
a(I2
g249
tp528
a(I3
g249
tp529
a(I0
g249
tp530
a(I1
g249
tp531
a(I2
g249
tp532
a(I3
g249
tp533
a(I0
g249
tp534
a(I1
g249
tp535
a(I2
g249
tp536
a(I3
g249
tp537
a(I0
g249
tp538
a(I1
g249
tp539
a(I2
g249
tp540
a(I3
g249
tp541
a(I0
g249
tp542
a(I1
g249
tp543
a(I2
g249
tp544
a(I3
g249
tp545
a(I0
g249
tp546
a(I1
g249
tp547
a(I2
g249
tp548
a(I3
g249
tp549
a(I0
g249
tp550
a(I1
g249
tp551
a(I2
g249
tp552
a(I3
g249
tp553
a(I0
g249
tp554
a(I1
g249
tp555
a(I2
g249
tp556
a(I3
g249
tp557
a(I0
g249
tp558
a(I1
g249
tp559
a(I2
g249
tp560
a(I3
g249
tp561
a(I0
g249
tp562
a(I1
g249
tp563
a(I2
g249
tp564
a(I3
g249
tp565
a(I0
g249
tp566
a(I1
g249
tp567
a(I2
g249
tp568
a(I3
g249
tp569
a(I0
g249
tp570
a(I1
g249
tp571
a(I2
g249
tp572
a(I3
g249
tp573
a(I0
g249
tp574
a(I1
g249
tp575
a(I2
g249
tp576
a(I3
g249
tp577
a(I0
g249
tp578
a(I1
g249
tp579
a(I2
g249
tp580
a(I3
g249
tp581
a(I0
g249
tp582
a(I1
g249
tp583
a(I2
g249
tp584
a(I3
g249
tp585
a(I0
g249
tp586
a(I1
g249
tp587
a(I2
g249
tp588
a(I3
g249
tp589
a(I0
g249
tp590
a(I1
g249
tp591
a(I2
g249
tp592
a(I3
g249
tp593
a(I0
g249
tp594
a(I1
g249
tp595
a(I2
g249
tp596
a(I3
g249
tp597
a(I0
g249
tp598
a(I1
g249
tp599
a(I2
g249
tp600
a(I3
g249
tp601
a(I0
g249
tp602
a(I1
g249
tp603
a(I2
g249
tp604
a(I3
g249
tp605
a(I0
g249
tp606
a(I1
g249
tp607
a(I2
g249
tp608
a(I3
g249
tp609
a(I0
g249
tp610
a(I1
g249
tp611
a(I2
g249
tp612
a(I3
g249
tp613
a(I0
g249
tp614
a(I1
g249
tp615
a(I2
g249
tp616
a(I3
g249
tp617
a(I0
g249
tp618
a(I1
g249
tp619
a(I2
g249
tp620
a(I3
g249
tp621
a(I0
g249
tp622
a(I1
g249
tp623
a(I2
g249
tp624
a(I3
g249
tp625
a(I0
g249
tp626
a(I1
g249
tp627
a(I2
g249
tp628
a(I3
g249
tp629
a(I0
g249
tp630
a(I1
g249
tp631
a(I2
g249
tp632
a(I3
g249
tp633
a(I0
g249
tp634
a(I1
g249
tp635
a(I2
g249
tp636
a(I3
g249
tp637
a(I0
g249
tp638
a(I1
g249
tp639
a(I2
g249
tp640
a(I3
g249
tp641
a(I0
g249
tp642
a(I1
g249
tp643
a(I2
g249
tp644
a(I3
g249
tp645
a(I0
g249
tp646
a(I1
g249
tp647
a(I2
g249
tp648
a(I3
g249
tp649
a(I0
g249
tp650
a(I1
g249
tp651
a(I2
g249
tp652
a(I3
g249
tp653
a(I0
g249
tp654
a(I1
g249
tp655
a(I2
g249
tp656
a(I3
g249
tp657
a(I0
g249
tp658
a(I1
g249
tp659
a(I2
g249
tp660
a(I3
g249
tp661
a(I0
g249
tp662
a(I1
g249
tp663
a(I2
g249
tp664
a(I3
g249
tp665
a(I0
g249
tp666
a(I1
g249
tp667
a(I2
g249
tp668
a(I3
g249
tp669
a(I0
g249
tp670
a(I1
g249
tp671
a(I2
g249
tp672
a(I3
g249
tp673
a(I0
g249
tp674
a(I1
g249
tp675
a(I2
g249
tp676
a(I3
g249
tp677
a(I0
g249
tp678
a(I1
g249
tp679
a(I2
g249
tp680
a(I3
g249
tp681
a(I0
g249
tp682
a(I1
g249
tp683
a(I2
g249
tp684
a(I3
g249
tp685
a(I0
g249
tp686
a(I1
g249
tp687
a(I2
g249
tp688
a(I3
g249
tp689
a(I0
g249
tp690
a(I1
g249
tp691
a(I2
g249
tp692
a(I3
g249
tp693
a(I0
g249
tp694
a(I1
g249
tp695
a(I2
g249
tp696
a(I3
g249
tp697
a(I0
g249
tp698
a(I1
g249
tp699
a(I2
g249
tp700
a(I3
g249
tp701
a(I0
g249
tp702
a(I1
g249
tp703
a(I2
g249
tp704
a(I3
g249
tp705
a(I0
g249
tp706
a(I1
g249
tp707
a(I2
g249
tp708
a(I3
g249
tp709
a(I0
g249
tp710
a(I1
g249
tp711
a(I2
g249
tp712
a(I3
g249
tp713
a(I0
g249
tp714
a(I1
g249
tp715
a(I2
g249
tp716
a(I3
g249
tp717
a(I0
g249
tp718
a(I1
g249
tp719
a(I2
g249
tp720
a(I3
g249
tp721
a(I0
g249
tp722
a(I1
g249
tp723
a(I2
g249
tp724
a(I3
g249
tp725
a(I0
g249
tp726
a(I1
g249
tp727
a(I2
g249
tp728
a(I3
g249
tp729
a(I0
g249
tp730
a(I1
g249
tp731
a(I2
g249
tp732
a(I3
g249
tp733
a(I0
g249
tp734
a(I1
g249
tp735
a(I2
g249
tp736
a(I3
g249
tp737
a(I0
g249
tp738
a(I1
g249
tp739
a(I2
g249
tp740
a(I3
g249
tp741
a(I0
g249
tp742
a(I1
g249
tp743
a(I2
g249
tp744
a(I3
g249
tp745
a(I0
g249
tp746
a(I1
g249
tp747
a(I2
g249
tp748
a(I3
g249
tp749
a(I0
g249
tp750
a(I1
g249
tp751
a(I2
g249
tp752
a(I3
g249
tp753
a(I0
g249
tp754
a(I1
g249
tp755
a(I2
g249
tp756
a(I3
g249
tp757
a(I0
g249
tp758
a(I1
g249
tp759
a(I2
g249
tp760
a(I3
g249
tp761
a(I0
g249
tp762
a(I1
g249
tp763
a(I2
g249
tp764
a(I3
g249
tp765
a(I0
g249
tp766
a(I1
g249
tp767
a(I2
g249
tp768
a(I3
g249
tp769
a(I0
g249
tp770
a(I1
g249
tp771
a(I2
g249
tp772
a(I3
g249
tp773
a(I0
g249
tp774
a(I1
g249
tp775
a(I2
g249
tp776
a(I3
g249
tp777
a(I0
g249
tp778
a(I1
g249
tp779
a(I2
g249
tp780
a(I3
g249
tp781
a(I0
g249
tp782
a(I1
g249
tp783
a(I2
g249
tp784
a(I3
g249
tp785
a(I0
g249
tp786
a(I1
g249
tp787
a(I2
g249
tp788
a(I3
g249
tp789
a(I0
g249
tp790
a(I1
g249
tp791
a(I2
g249
tp792
a(I3
g249
tp793
a(I0
g249
tp794
a(I1
g249
tp795
a(I2
g249
tp796
a(I3
g249
tp797
a(I0
g249
tp798
a(I1
g249
tp799
a(I2
g249
tp800
a(I3
g249
tp801
a(I0
g249
tp802
a(I1
g249
tp803
a(I2
g249
tp804
a(I3
g249
tp805
a(I0
g249
tp806
a(I1
g249
tp807
a(I2
g249
tp808
a(I3
g249
tp809
a(I0
g249
tp810
a(I1
g249
tp811
a(I2
g249
tp812
a(I3
g249
tp813
a(I0
g249
tp814
a(I1
g249
tp815
a(I2
g249
tp816
a(I3
g249
tp817
a(I0
g249
tp818
a(I1
g249
tp819
a(I2
g249
tp820
a(I3
g249
tp821
a(I0
g249
tp822
a(I1
g249
tp823
a(I2
g249
tp824
a(I3
g249
tp825
a(I0
g249
tp826
a(I1
g249
tp827
a(I2
g249
tp828
a(I3
g249
tp829
a(I0
g249
tp830
a(I1
g249
tp831
a(I2
g249
tp832
a(I3
g249
tp833
a(I0
g249
tp834
a(I1
g249
tp835
a(I2
g249
tp836
a(I3
g249
tp837
a(I0
g249
tp838
a(I1
g249
tp839
a(I2
g249
tp840
a(I3
g249
tp841
a(I0
g249
tp842
a(I1
g249
tp843
a(I2
g249
tp844
a(I3
g249
tp845
a(I0
g249
tp846
a(I1
g249
tp847
a(I2
g249
tp848
a(I3
g249
tp849
a(I0
g249
tp850
a(I1
g249
tp851
a(I2
g249
tp852
a(I3
g249
tp853
a(I0
g249
tp854
a(I1
g249
tp855
a(I2
g249
tp856
a(I3
g249
tp857
a(I0
g249
tp858
a(I1
g249
tp859
a(I2
g249
tp860
a(I3
g249
tp861
a(I0
g249
tp862
a(I1
g249
tp863
a(I2
g249
tp864
a(I3
g249
tp865
a(I0
g249
tp866
a(I1
g249
tp867
a(I2
g249
tp868
a(I3
g249
tp869
a(I0
g249
tp870
a(I1
g249
tp871
a(I2
g249
tp872
a(I3
g249
tp873
a(I0
g249
tp874
a(I1
g249
tp875
a(I2
g249
tp876
a(I3
g249
tp877
a(I0
g249
tp878
a(I1
g249
tp879
a(I2
g249
tp880
a(I3
g249
tp881
a(I0
g249
tp882
a(I1
g249
tp883
a(I2
g249
tp884
a(I3
g249
tp885
a(I0
g249
tp886
a(I1
g249
tp887
a(I2
g249
tp888
a(I3
g249
tp889
a(I0
g249
tp890
a(I1
g249
tp891
a(I2
g249
tp892
a(I3
g249
tp893
a(I0
g249
tp894
a(I1
g249
tp895
a(I2
g249
tp896
a(I3
g249
tp897
a(I0
g249
tp898
a(I1
g249
tp899
a(I2
g249
tp900
a(I3
g249
tp901
a(I0
g249
tp902
a(I1
g249
tp903
a(I2
g249
tp904
a(I3
g249
tp905
a(I0
g249
tp906
a(I1
g249
tp907
a(I2
g249
tp908
a(I3
g249
tp909
a(I0
g249
tp910
a(I1
g249
tp911
a(I2
g249
tp912
a(I3
g249
tp913
a(I0
g249
tp914
a(I1
g249
tp915
a(I2
g249
tp916
a(I3
g249
tp917
a(I0
g249
tp918
a(I1
g249
tp919
a(I2
g249
tp920
a(I3
g249
tp921
a(I0
g249
tp922
a(I1
g249
tp923
a(I2
g249
tp924
a(I3
g249
tp925
a(I0
g249
tp926
a(I1
g249
tp927
a(I2
g249
tp928
a(I3
g249
tp929
a(I0
g249
tp930
a(I1
g249
tp931
a(I2
g249
tp932
a(I3
g249
tp933
a(I0
g249
tp934
a(I1
g249
tp935
a(I2
g249
tp936
a(I3
g249
tp937
a(I0
g249
tp938
a(I1
g249
tp939
a(I2
g249
tp940
a(I3
g249
tp941
a(I0
g249
tp942
a(I1
g249
tp943
a(I2
g249
tp944
a(I3
g249
tp945
a(I0
g249
tp946
a(I1
g249
tp947
a(I2
g249
tp948
a(I3
g249
tp949
a(I0
g249
tp950
a(I1
g249
tp951
a(I2
g249
tp952
a(I3
g249
tp953
a(I0
g249
tp954
a(I1
g249
tp955
a(I2
g249
tp956
a(I3
g249
tp957
a(I0
g249
tp958
a(I1
g249
tp959
a(I2
g249
tp960
a(I3
g249
tp961
a(I0
g249
tp962
a(I1
g249
tp963
a(I2
g249
tp964
a(I3
g249
tp965
a(I0
g249
tp966
a(I1
g249
tp967
a(I2
g249
tp968
a(I3
g249
tp969
a(I0
g249
tp970
a(I1
g249
tp971
a(I2
g249
tp972
a(I3
g249
tp973
a(I0
g249
tp974
a(I1
g249
tp975
a(I2
g249
tp976
a(I3
g249
tp977
a(I0
g249
tp978
a(I1
g249
tp979
a(I2
g249
tp980
a(I3
g249
tp981
a(I0
g249
tp982
a(I1
g249
tp983
a(I2
g249
tp984
a(I3
g249
tp985
a(I0
g249
tp986
a(I1
g249
tp987
a(I2
g249
tp988
a(I3
g249
tp989
a(I0
g249
tp990
a(I1
g249
tp991
a(I2
g249
tp992
a(I3
g249
tp993
a(I0
g249
tp994
a(I1
g249
tp995
a(I2
g249
tp996
a(I3
g249
tp997
a(I0
g249
tp998
a(I1
g249
tp999
a(I2
g249
tp1000
a(I3
g249
tp1001
a(I0
g249
tp1002
a(I1
g249
tp1003
a(I2
g249
tp1004
a(I3
g249
tp1005
a(I0
g249
tp1006
a(I1
g249
tp1007
a(I2
g249
tp1008
a(I3
g249
tp1009
a(I0
g249
tp1010
a(I1
g249
tp1011
a(I2
g249
tp1012
a(I3
g249
tp1013
a(I0
g249
tp1014
a(I1
g249
tp1015
a(I2
g249
tp1016
a(I3
g249
tp1017
a(I0
g249
tp1018
a(I1
g249
tp1019
a(I2
g249
tp1020
a(I3
g249
tp1021
a(I0
g249
tp1022
a(I1
g249
tp1023
a(I2
g249
tp1024
a(I3
g249
tp1025
a(I0
g249
tp1026
a(I1
g249
tp1027
a(I2
g249
tp1028
a(I3
g249
tp1029
a(I0
g249
tp1030
a(I1
g249
tp1031
a(I2
g249
tp1032
a(I3
g249
tp1033
a(I0
g249
tp1034
a(I1
g249
tp1035
a(I2
g249
tp1036
a(I3
g249
tp1037
a(I0
g249
tp1038
a(I1
g249
tp1039
a(I2
g249
tp1040
a(I3
g249
tp1041
a(I0
g249
tp1042
a(I1
g249
tp1043
a(I2
g249
tp1044
a(I3
g249
tp1045
a(I0
g249
tp1046
a(I1
g249
tp1047
a(I2
g249
tp1048
a(I3
g249
tp1049
a(I0
g249
tp1050
a(I1
g249
tp1051
a(I2
g249
tp1052
a(I3
g249
tp1053
a(I0
g249
tp1054
a(I1
g249
tp1055
a(I2
g249
tp1056
a(I3
g249
tp1057
a(I0
g249
tp1058
a(I1
g249
tp1059
a(I2
g249
tp1060
a(I3
g249
tp1061
a(I0
g249
tp1062
a(I1
g249
tp1063
a(I2
g249
tp1064
a(I3
g249
tp1065
a(I0
g249
tp1066
a(I1
g249
tp1067
a(I2
g249
tp1068
a(I3
g249
tp1069
a(I0
g249
tp1070
a(I1
g249
tp1071
a(I2
g249
tp1072
a(I3
g249
tp1073
a(I0
g249
tp1074
a(I1
g249
tp1075
a(I2
g249
tp1076
a(I3
g249
tp1077
a(I0
g249
tp1078
a(I1
g249
tp1079
a(I2
g249
tp1080
a(I3
g249
tp1081
a(I0
g249
tp1082
a(I1
g249
tp1083
a(I2
g249
tp1084
a(I3
g249
tp1085
a(I0
g249
tp1086
a(I1
g249
tp1087
a(I2
g249
tp1088
a(I3
g249
tp1089
a(I0
g249
tp1090
a(I1
g249
tp1091
a(I2
g249
tp1092
a(I3
g249
tp1093
a(I0
g249
tp1094
a(I1
g249
tp1095
a(I2
g249
tp1096
a(I3
g249
tp1097
a(I0
g249
tp1098
a(I1
g249
tp1099
a(I2
g249
tp1100
a(I3
g249
tp1101
a(I0
g249
tp1102
a(I1
g249
tp1103
a(I2
g249
tp1104
a(I3
g249
tp1105
a(I0
g249
tp1106
a(I1
g249
tp1107
a(I2
g249
tp1108
a(I3
g249
tp1109
a(I0
g249
tp1110
a(I1
g249
tp1111
a(I2
g249
tp1112
a(I3
g249
tp1113
a(I0
g249
tp1114
a(I1
g249
tp1115
a(I2
g249
tp1116
a(I3
g249
tp1117
a(I0
g249
tp1118
a(I1
g249
tp1119
a(I2
g249
tp1120
a(I3
g249
tp1121
a(I0
g249
tp1122
a(I1
g249
tp1123
a(I2
g249
tp1124
a(I3
g249
tp1125
a(I0
g249
tp1126
a(I1
g249
tp1127
a(I2
g249
tp1128
a(I3
g249
tp1129
a(I0
g249
tp1130
a(I1
g249
tp1131
a(I2
g249
tp1132
a(I3
g249
tp1133
a(I0
g249
tp1134
a(I1
g249
tp1135
a(I2
g249
tp1136
a(I3
g249
tp1137
a(I0
g249
tp1138
a(I1
g249
tp1139
a(I2
g249
tp1140
a(I3
g249
tp1141
a(I0
g249
tp1142
a(I1
g249
tp1143
a(I2
g249
tp1144
a(I3
g249
tp1145
a(I0
g249
tp1146
a(I1
g249
tp1147
a(I2
g249
tp1148
a(I3
g249
tp1149
a(I0
g249
tp1150
a(I1
g249
tp1151
a(I2
g249
tp1152
a(I3
g249
tp1153
a(I0
g249
tp1154
a(I1
g249
tp1155
a(I2
g249
tp1156
a(I3
g249
tp1157
a(I0
g249
tp1158
a(I1
g249
tp1159
a(I2
g249
tp1160
a(I3
g249
tp1161
a(I0
g249
tp1162
a(I1
g249
tp1163
a(I2
g249
tp1164
a(I3
g249
tp1165
a(I0
g249
tp1166
a(I1
g249
tp1167
a(I2
g249
tp1168
a(I3
g249
tp1169
a(I0
g249
tp1170
a(I1
g249
tp1171
a(I2
g249
tp1172
a(I3
g249
tp1173
a(I0
g249
tp1174
a(I1
g249
tp1175
a(I2
g249
tp1176
a(I3
g249
tp1177
a(I0
g249
tp1178
a(I1
g249
tp1179
a(I2
g249
tp1180
a(I3
g249
tp1181
a(I0
g249
tp1182
a(I1
g249
tp1183
a(I2
g249
tp1184
a(I3
g249
tp1185
a(I0
g249
tp1186
a(I1
g249
tp1187
a(I2
g249
tp1188
a(I3
g249
tp1189
a(I0
g249
tp1190
a(I1
g249
tp1191
a(I2
g249
tp1192
a(I3
g249
tp1193
a(I0
g249
tp1194
a(I1
g249
tp1195
a(I2
g249
tp1196
a(I3
g249
tp1197
a(I0
g249
tp1198
a(I1
g249
tp1199
a(I2
g249
tp1200
a(I3
g249
tp1201
a(I0
g249
tp1202
a(I1
g249
tp1203
a(I2
g249
tp1204
a(I3
g249
tp1205
a(I0
g249
tp1206
a(I1
g249
tp1207
a(I2
g249
tp1208
a(I3
g249
tp1209
a(I0
g249
tp1210
a(I1
g249
tp1211
a(I2
g249
tp1212
a(I3
g249
tp1213
a(I0
g249
tp1214
a(I1
g249
tp1215
a(I2
g249
tp1216
a(I3
g249
tp1217
a(I0
g249
tp1218
a(I1
g249
tp1219
a(I2
g249
tp1220
a(I3
g249
tp1221
a(I0
g249
tp1222
a(I1
g249
tp1223
a(I2
g249
tp1224
a(I3
g249
tp1225
a(I0
g249
tp1226
a(I1
g249
tp1227
a(I2
g249
tp1228
a(I3
g249
tp1229
a(I0
g249
tp1230
a(I1
g249
tp1231
a(I2
g249
tp1232
a(I3
g249
tp1233
a(I0
g249
tp1234
a(I1
g249
tp1235
a(I2
g249
tp1236
a(I3
g249
tp1237
a(I0
g249
tp1238
a(I1
g249
tp1239
a(I2
g249
tp1240
a(I3
g249
tp1241
a(I0
g249
tp1242
a(I1
g249
tp1243
a(I2
g249
tp1244
a(I3
g249
tp1245
a(I0
g249
tp1246
a(I1
g249
tp1247
a(I2
g249
tp1248
a(I3
g249
tp1249
a(I0
g249
tp1250
a(I1
g249
tp1251
a(I2
g249
tp1252
a(I3
g249
tp1253
a(I0
g249
tp1254
a(I1
g249
tp1255
a(I2
g249
tp1256
a(I3
g249
tp1257
a(I0
g249
tp1258
a(I1
g249
tp1259
a(I2
g249
tp1260
a(I3
g249
tp1261
a(I0
g249
tp1262
a(I1
g249
tp1263
a(I2
g249
tp1264
a(I3
g249
tp1265
a(I0
g249
tp1266
a(I1
g249
tp1267
a(I2
g249
tp1268
a(I3
g249
tp1269
a(I0
g249
tp1270
a(I1
g249
tp1271
a(I2
g249
tp1272
a(I3
g249
tp1273
a(I0
g249
tp1274
a(I1
g249
tp1275
a(I2
g249
tp1276
a(I3
g249
tp1277
a(I0
g249
tp1278
a(I1
g249
tp1279
a(I2
g249
tp1280
a(I3
g249
tp1281
a(I0
g249
tp1282
a(I1
g249
tp1283
a(I2
g249
tp1284
a(I3
g249
tp1285
a(I0
g249
tp1286
a(I1
g249
tp1287
a(I2
g249
tp1288
a(I3
g249
tp1289
a(I0
g249
tp1290
a(I1
g249
tp1291
a(I2
g249
tp1292
a(I3
g249
tp1293
a(I0
g249
tp1294
a(I1
g249
tp1295
a(I2
g249
tp1296
a(I3
g249
tp1297
a(I0
g249
tp1298
a(I1
g249
tp1299
a(I2
g249
tp1300
a(I3
g249
tp1301
a(I0
g249
tp1302
a(I1
g249
tp1303
a(I2
g249
tp1304
a(I3
g249
tp1305
a(I0
g249
tp1306
a(I1
g249
tp1307
a(I2
g249
tp1308
a(I3
g249
tp1309
a(I0
g249
tp1310
a(I1
g249
tp1311
a(I2
g249
tp1312
a(I3
g249
tp1313
a(I0
g249
tp1314
a(I1
g249
tp1315
a(I2
g249
tp1316
a(I3
g249
tp1317
a(I0
g249
tp1318
a(I1
g249
tp1319
a(I2
g249
tp1320
a(I3
g249
tp1321
a(I0
g249
tp1322
a(I1
g249
tp1323
a(I2
g249
tp1324
a(I3
g249
tp1325
a(I0
g249
tp1326
a(I1
g249
tp1327
a(I2
g249
tp1328
a(I3
g249
tp1329
a(I0
g249
tp1330
asS'length'
p1331
I1200
sS'agents'
p1332
(lp1333
(igame
Agent
p1334
(dp1335
S'index'
p1336
I0
sba(igame
Agent
p1337
(dp1338
g1336
I0
sba(igame
Agent
p1339
(dp1340
g1336
I0
sba(igame
Agent
p1341
(dp1342
g1336
I0
sbasS'redTeamName'
p1343
S'2Pac'
p1344
s.