(dp1
S'layout'
p2
(ilayout
Layout
p3
(dp4
S'capsules'
p5
(lp6
(I4
I8
tp7
a(I5
I8
tp8
a(I28
I9
tp9
a(I29
I9
tp10
asS'numGhosts'
p11
I4
sS'food'
p12
(igame
Grid
p13
(dp14
S'CELLS_PER_INT'
p15
I30
sS'width'
p16
I34
sS'data'
p17
(lp18
(lp19
I00
aI00
aI00
aI00
aI00
aI00
aI00
aI00
aI00
aI00
aI00
aI00
aI00
aI00
aI00
aI00
aI00
aI00
aa(lp20
I00
aI00
aI00
aI00
aI00
aI00
aI00
aI00
aI00
aI00
aI00
aI00
aI00
aI00
aI00
aI00
aI00
aI00
aa(lp21
I00
aI00
aI00
aI00
aI00
aI00
aI00
aI00
aI00
aI00
aI00
aI00
aI00
aI00
aI00
aI00
aI00
aI00
aa(lp22
I00
aI00
aI00
aI00
aI00
aI01
aI01
aI01
aI00
aI00
aI00
aI00
aI00
aI00
aI01
aI00
aI01
aI00
aa(lp23
I00
aI00
aI00
aI00
aI00
aI00
aI00
aI00
aI00
aI00
aI01
aI00
aI00
aI00
aI01
aI00
aI00
aI00
aa(lp24
I00
aI00
aI00
aI00
aI00
aI00
aI00
aI00
aI00
aI00
aI00
aI00
aI00
aI00
aI00
aI00
aI01
aI00
aa(lp25
I00
aI00
aI00
aI00
aI00
aI00
aI00
aI00
aI00
aI00
aI00
aI00
aI00
aI00
aI00
aI00
aI00
aI00
aa(lp26
I00
aI00
aI00
aI00
aI00
aI01
aI01
aI00
aI00
aI00
aI00
aI00
aI00
aI00
aI00
aI00
aI00
aI00
aa(lp27
I00
aI00
aI00
aI00
aI00
aI00
aI00
aI00
aI00
aI00
aI00
aI00
aI00
aI00
aI00
aI00
aI00
aI00
aa(lp28
I00
aI01
aI00
aI00
aI01
aI01
aI00
aI01
aI01
aI00
aI01
aI00
aI00
aI01
aI01
aI00
aI01
aI00
aa(lp29
I00
aI00
aI00
aI00
aI00
aI00
aI00
aI00
aI00
aI00
aI00
aI00
aI00
aI00
aI00
aI00
aI01
aI00
aa(lp30
I00
aI01
aI00
aI00
aI00
aI01
aI00
aI01
aI00
aI00
aI00
aI01
aI01
aI01
aI00
aI00
aI00
aI00
aa(lp31
I00
aI00
aI01
aI00
aI00
aI00
aI00
aI00
aI00
aI00
aI00
aI00
aI00
aI00
aI00
aI00
aI01
aI00
aa(lp32
I00
aI00
aI00
aI00
aI00
aI01
aI00
aI00
aI00
aI00
aI00
aI00
aI00
aI00
aI00
aI00
aI00
aI00
aa(lp33
I00
aI00
aI00
aI00
aI00
aI00
aI00
aI00
aI00
aI00
aI00
aI00
aI00
aI00
aI00
aI00
aI00
aI00
aa(lp34
I00
aI00
aI00
aI00
aI00
aI00
aI00
aI00
aI00
aI00
aI00
aI00
aI01
aI00
aI00
aI00
aI00
aI00
aa(lp35
I00
aI00
aI00
aI00
aI00
aI00
aI00
aI00
aI00
aI00
aI00
aI00
aI00
aI00
aI00
aI00
aI00
aI00
aa(lp36
I00
aI00
aI00
aI00
aI00
aI00
aI00
aI00
aI00
aI00
aI00
aI00
aI00
aI00
aI00
aI00
aI00
aI00
aa(lp37
I00
aI00
aI00
aI00
aI00
aI01
aI00
aI00
aI00
aI00
aI00
aI00
aI00
aI00
aI00
aI00
aI00
aI00
aa(lp38
I00
aI00
aI00
aI00
aI00
aI00
aI00
aI00
aI00
aI00
aI00
aI00
aI00
aI00
aI00
aI00
aI00
aI00
aa(lp39
I00
aI00
aI00
aI00
aI00
aI00
aI00
aI00
aI00
aI00
aI00
aI00
aI01
aI00
aI00
aI00
aI00
aI00
aa(lp40
I00
aI01
aI00
aI00
aI00
aI00
aI00
aI00
aI00
aI00
aI00
aI00
aI00
aI00
aI00
aI01
aI00
aI00
aa(lp41
I00
aI00
aI00
aI00
aI01
aI01
aI01
aI00
aI00
aI00
aI01
aI00
aI01
aI00
aI00
aI00
aI01
aI00
aa(lp42
I00
aI01
aI00
aI00
aI00
aI00
aI00
aI00
aI00
aI00
aI00
aI00
aI00
aI00
aI00
aI00
aI00
aI00
aa(lp43
I00
aI01
aI00
aI01
aI01
aI00
aI00
aI01
aI00
aI01
aI01
aI00
aI01
aI01
aI00
aI00
aI01
aI00
aa(lp44
I00
aI00
aI00
aI00
aI00
aI00
aI00
aI00
aI00
aI00
aI00
aI00
aI00
aI00
aI00
aI00
aI00
aI00
aa(lp45
I00
aI00
aI00
aI00
aI00
aI00
aI00
aI00
aI00
aI00
aI00
aI01
aI01
aI00
aI00
aI00
aI00
aI00
aa(lp46
I00
aI00
aI00
aI00
aI00
aI00
aI00
aI00
aI00
aI00
aI00
aI00
aI00
aI00
aI00
aI00
aI00
aI00
aa(lp47
I00
aI01
aI00
aI00
aI00
aI00
aI00
aI00
aI00
aI00
aI00
aI00
aI00
aI00
aI00
aI00
aI00
aI00
aa(lp48
I00
aI00
aI00
aI01
aI00
aI00
aI00
aI01
aI00
aI00
aI00
aI00
aI00
aI00
aI00
aI00
aI00
aI00
aa(lp49
I00
aI01
aI00
aI01
aI00
aI00
aI00
aI00
aI00
aI00
aI01
aI01
aI01
aI00
aI00
aI00
aI00
aI00
aa(lp50
I00
aI00
aI00
aI00
aI00
aI00
aI00
aI00
aI00
aI00
aI00
aI00
aI00
aI00
aI00
aI00
aI00
aI00
aa(lp51
I00
aI00
aI00
aI00
aI00
aI00
aI00
aI00
aI00
aI00
aI00
aI00
aI00
aI00
aI00
aI00
aI00
aI00
aa(lp52
I00
aI00
aI00
aI00
aI00
aI00
aI00
aI00
aI00
aI00
aI00
aI00
aI00
aI00
aI00
aI00
aI00
aI00
aasS'height'
p53
I18
sbsS'agentPositions'
p54
(lp55
(I00
(I1
I2
tp56
tp57
a(I00
(I32
I15
tp58
tp59
a(I00
(I1
I1
tp60
tp61
a(I00
(I32
I16
tp62
tp63
asg53
I18
sg16
I34
sS'walls'
p64
(igame
Grid
p65
(dp66
g15
I30
sg16
I34
sg17
(lp67
(lp68
I01
aI01
aI01
aI01
aI01
aI01
aI01
aI01
aI01
aI01
aI01
aI01
aI01
aI01
aI01
aI01
aI01
aI01
aa(lp69
I01
aI00
aI00
aI00
aI00
aI00
aI00
aI00
aI00
aI00
aI00
aI00
aI00
aI00
aI00
aI00
aI00
aI01
aa(lp70
I01
aI01
aI01
aI01
aI01
aI01
aI01
aI01
aI01
aI01
aI01
aI01
aI01
aI01
aI01
aI01
aI00
aI01
aa(lp71
I01
aI00
aI00
aI00
aI01
aI00
aI00
aI00
aI00
aI00
aI01
aI00
aI00
aI00
aI00
aI01
aI00
aI01
aa(lp72
I01
aI00
aI01
aI00
aI01
aI01
aI01
aI01
aI00
aI00
aI00
aI00
aI00
aI01
aI00
aI00
aI00
aI01
aa(lp73
I01
aI00
aI01
aI00
aI00
aI00
aI00
aI00
aI00
aI00
aI01
aI00
aI00
aI00
aI00
aI01
aI00
aI01
aa(lp74
I01
aI00
aI00
aI00
aI01
aI01
aI01
aI01
aI01
aI01
aI01
aI01
aI01
aI01
aI00
aI01
aI00
aI01
aa(lp75
I01
aI00
aI00
aI00
aI01
aI00
aI00
aI00
aI00
aI00
aI00
aI00
aI00
aI00
aI00
aI01
aI00
aI01
aa(lp76
I01
aI01
aI00
aI01
aI01
aI01
aI01
aI01
aI01
aI01
aI01
aI01
aI01
aI01
aI01
aI01
aI00
aI01
aa(lp77
I01
aI00
aI00
aI00
aI00
aI00
aI01
aI00
aI00
aI00
aI00
aI00
aI00
aI00
aI00
aI01
aI00
aI01
aa(lp78
I01
aI01
aI01
aI01
aI00
aI01
aI01
aI01
aI01
aI01
aI00
aI01
aI01
aI01
aI01
aI01
aI00
aI01
aa(lp79
I01
aI00
aI01
aI00
aI00
aI00
aI01
aI00
aI01
aI00
aI00
aI00
aI00
aI00
aI00
aI01
aI00
aI01
aa(lp80
I01
aI00
aI00
aI00
aI00
aI01
aI01
aI00
aI00
aI00
aI00
aI01
aI01
aI01
aI00
aI00
aI00
aI01
aa(lp81
I01
aI00
aI01
aI00
aI00
aI00
aI00
aI00
aI01
aI00
aI00
aI00
aI00
aI00
aI00
aI01
aI00
aI01
aa(lp82
I01
aI00
aI01
aI01
aI01
aI01
aI01
aI00
aI01
aI01
aI01
aI01
aI01
aI01
aI01
aI01
aI00
aI01
aa(lp83
I01
aI00
aI00
aI00
aI00
aI00
aI00
aI00
aI00
aI00
aI00
aI01
aI00
aI01
aI00
aI00
aI00
aI01
aa(lp84
I01
aI00
aI01
aI00
aI01
aI00
aI01
aI00
aI01
aI00
aI00
aI00
aI00
aI00
aI00
aI00
aI00
aI01
aa(lp85
I01
aI00
aI00
aI00
aI00
aI00
aI00
aI00
aI00
aI01
aI00
aI01
aI00
aI01
aI00
aI01
aI00
aI01
aa(lp86
I01
aI00
aI00
aI00
aI01
aI00
aI01
aI00
aI00
aI00
aI00
aI00
aI00
aI00
aI00
aI00
aI00
aI01
aa(lp87
I01
aI00
aI01
aI01
aI01
aI01
aI01
aI01
aI01
aI01
aI00
aI01
aI01
aI01
aI01
aI01
aI00
aI01
aa(lp88
I01
aI00
aI01
aI00
aI00
aI00
aI00
aI00
aI00
aI01
aI00
aI00
aI00
aI00
aI00
aI01
aI00
aI01
aa(lp89
I01
aI00
aI00
aI00
aI01
aI01
aI01
aI00
aI00
aI00
aI00
aI01
aI01
aI00
aI00
aI00
aI00
aI01
aa(lp90
I01
aI00
aI01
aI00
aI00
aI00
aI00
aI00
aI00
aI01
aI00
aI01
aI00
aI00
aI00
aI01
aI00
aI01
aa(lp91
I01
aI00
aI01
aI01
aI01
aI01
aI01
aI00
aI01
aI01
aI01
aI01
aI01
aI00
aI01
aI01
aI01
aI01
aa(lp92
I01
aI00
aI01
aI00
aI00
aI00
aI00
aI00
aI00
aI00
aI00
aI01
aI00
aI00
aI00
aI00
aI00
aI01
aa(lp93
I01
aI00
aI01
aI01
aI01
aI01
aI01
aI01
aI01
aI01
aI01
aI01
aI01
aI01
aI01
aI00
aI01
aI01
aa(lp94
I01
aI00
aI01
aI00
aI00
aI00
aI00
aI00
aI00
aI00
aI00
aI00
aI00
aI01
aI00
aI00
aI00
aI01
aa(lp95
I01
aI00
aI01
aI00
aI01
aI01
aI01
aI01
aI01
aI01
aI01
aI01
aI01
aI01
aI00
aI00
aI00
aI01
aa(lp96
I01
aI00
aI01
aI00
aI00
aI00
aI00
aI01
aI00
aI00
aI00
aI00
aI00
aI00
aI00
aI01
aI00
aI01
aa(lp97
I01
aI00
aI00
aI00
aI01
aI00
aI00
aI00
aI00
aI00
aI01
aI01
aI01
aI01
aI00
aI01
aI00
aI01
aa(lp98
I01
aI00
aI01
aI00
aI00
aI00
aI00
aI01
aI00
aI00
aI00
aI00
aI00
aI01
aI00
aI00
aI00
aI01
aa(lp99
I01
aI00
aI01
aI01
aI01
aI01
aI01
aI01
aI01
aI01
aI01
aI01
aI01
aI01
aI01
aI01
aI01
aI01
aa(lp100
I01
aI00
aI00
aI00
aI00
aI00
aI00
aI00
aI00
aI00
aI00
aI00
aI00
aI00
aI00
aI00
aI00
aI01
aa(lp101
I01
aI01
aI01
aI01
aI01
aI01
aI01
aI01
aI01
aI01
aI01
aI01
aI01
aI01
aI01
aI01
aI01
aI01
aasg53
I18
sbsS'layoutText'
p102
(lp103
S'%%%%%%%%%%%%%%%%%%%%%%%%%%%%%%%%%%'
p104
aS'%  . .   .. .         .%.%     %4%'
p105
aS'% %% %%%%%%% %%  % %%.%%    %% %2%'
p106
aS'% %..   %.%   %    %   % %     % %'
p107
aS'% % % % %.%.% %% % %    .%%% %%% %'
p108
aS'% %   % % %.% %.   %.%.%.%.% %.% %'
p109
aS'% %   % % %.% %% % % %%%%%.% %.% %'
p110
aS'% %%.%% %.    %       .%.% % %.% %'
p111
aS'% %   % % %   %  % %% %%.% %oo % %'
p112
aS'% % oo% %.%% %% %  %   % % %   % %'
p113
aS'% %.% % %.%.       %    .% %%.%% %'
p114
aS'% %.% %.%%%%% % % %% %.% % %   % %'
p115
aS'% %.% %.%.%.%.%   .% %.% % %   % %'
p116
aS'% %%% %%%.    % % %% %.%.% % % % %'
p117
aS'% %     % %   %    %   %.%   ..% %'
p118
aS'%1% %%    %%.%% %  %% %%%%%%% %% %'
p119
aS'%3%     %.%.         . ..   . .  %'
p120
aS'%%%%%%%%%%%%%%%%%%%%%%%%%%%%%%%%%%'
p121
asbsS'blueTeamName'
p122
S'Clyde'
p123
sS'actions'
p124
(lp125
(I0
S'North'
p126
tp127
a(I1
S'South'
p128
tp129
a(I2
g126
tp130
a(I3
g128
tp131
a(I0
g126
tp132
a(I1
g128
tp133
a(I2
g126
tp134
a(I3
g128
tp135
a(I0
g126
tp136
a(I1
g128
tp137
a(I2
g126
tp138
a(I3
g128
tp139
a(I0
g126
tp140
a(I1
g128
tp141
a(I2
g126
tp142
a(I3
g128
tp143
a(I0
g126
tp144
a(I1
g128
tp145
a(I2
g126
tp146
a(I3
g128
tp147
a(I0
g126
tp148
a(I1
g128
tp149
a(I2
g126
tp150
a(I3
g128
tp151
a(I0
g126
tp152
a(I1
g128
tp153
a(I2
g126
tp154
a(I3
g128
tp155
a(I0
g126
tp156
a(I1
g128
tp157
a(I2
g126
tp158
a(I3
g128
tp159
a(I0
g126
tp160
a(I1
g128
tp161
a(I2
g126
tp162
a(I3
g128
tp163
a(I0
g126
tp164
a(I1
g128
tp165
a(I2
g126
tp166
a(I3
g128
tp167
a(I0
g126
tp168
a(I1
g128
tp169
a(I2
g126
tp170
a(I3
g128
tp171
a(I0
g126
tp172
a(I1
g128
tp173
a(I2
g126
tp174
a(I3
g128
tp175
a(I0
g126
tp176
a(I1
g128
tp177
a(I2
g126
tp178
a(I3
g128
tp179
a(I0
g126
tp180
a(I1
g128
tp181
a(I2
g126
tp182
a(I3
g128
tp183
a(I0
S'East'
p184
tp185
a(I1
S'West'
p186
tp187
a(I2
g126
tp188
a(I3
g128
tp189
a(I0
g184
tp190
a(I1
g186
tp191
a(I2
g184
tp192
a(I3
g186
tp193
a(I0
g184
tp194
a(I1
g186
tp195
a(I2
g184
tp196
a(I3
g186
tp197
a(I0
g184
tp198
a(I1
g186
tp199
a(I2
g184
tp200
a(I3
g186
tp201
a(I0
g184
tp202
a(I1
g186
tp203
a(I2
g184
tp204
a(I3
g186
tp205
a(I0
g184
tp206
a(I1
g186
tp207
a(I2
g184
tp208
a(I3
g186
tp209
a(I0
g184
tp210
a(I1
g186
tp211
a(I2
g184
tp212
a(I3
g186
tp213
a(I0
g184
tp214
a(I1
g186
tp215
a(I2
g184
tp216
a(I3
g186
tp217
a(I0
g184
tp218
a(I1
g186
tp219
a(I2
g184
tp220
a(I3
g186
tp221
a(I0
g184
tp222
a(I1
g186
tp223
a(I2
g184
tp224
a(I3
g186
tp225
a(I0
g184
tp226
a(I1
g186
tp227
a(I2
g184
tp228
a(I3
g186
tp229
a(I0
g184
tp230
a(I1
g126
tp231
a(I2
g184
tp232
a(I3
g186
tp233
a(I0
g184
tp234
a(I1
g126
tp235
a(I2
g184
tp236
a(I3
g186
tp237
a(I0
g184
tp238
a(I1
g186
tp239
a(I2
g184
tp240
a(I3
g186
tp241
a(I0
g184
tp242
a(I1
g126
tp243
a(I2
g184
tp244
a(I3
g186
tp245
a(I0
g184
tp246
a(I1
g126
tp247
a(I2
g128
tp248
a(I3
g186
tp249
a(I0
g184
tp250
a(I1
g126
tp251
a(I2
g128
tp252
a(I3
g186
tp253
a(I0
g184
tp254
a(I1
g126
tp255
a(I2
g184
tp256
a(I3
g186
tp257
a(I0
g184
tp258
a(I1
g184
tp259
a(I2
g184
tp260
a(I3
g186
tp261
a(I0
g184
tp262
a(I1
g126
tp263
a(I2
g184
tp264
a(I3
g186
tp265
a(I0
g128
tp266
a(I1
g126
tp267
a(I2
g128
tp268
a(I3
g186
tp269
a(I0
g126
tp270
a(I1
g126
tp271
a(I2
g128
tp272
a(I3
g186
tp273
a(I0
g184
tp274
a(I1
g186
tp275
a(I2
g128
tp276
a(I3
g184
tp277
a(I0
g186
tp278
a(I1
g186
tp279
a(I2
g126
tp280
a(I3
g126
tp281
a(I0
g128
tp282
a(I1
g186
tp283
a(I2
g126
tp284
a(I3
g126
tp285
a(I0
g128
tp286
a(I1
g126
tp287
a(I2
g126
tp288
a(I3
g186
tp289
a(I0
g184
tp290
a(I1
g126
tp291
a(I2
g186
tp292
a(I3
g126
tp293
a(I0
g128
tp294
a(I1
g126
tp295
a(I2
g186
tp296
a(I3
g126
tp297
a(I0
g128
tp298
a(I1
g126
tp299
a(I2
g128
tp300
a(I3
g128
tp301
a(I0
g126
tp302
a(I1
g126
tp303
a(I2
g128
tp304
a(I3
g186
tp305
a(I0
g184
tp306
a(I1
g126
tp307
a(I2
g128
tp308
a(I3
g186
tp309
a(I0
g184
tp310
a(I1
g184
tp311
a(I2
g128
tp312
a(I3
g126
tp313
a(I0
g128
tp314
a(I1
g184
tp315
a(I2
g186
tp316
a(I3
g128
tp317
a(I0
g126
tp318
a(I1
g184
tp319
a(I2
g128
tp320
a(I3
g128
tp321
a(I0
g126
tp322
a(I1
g128
tp323
a(I2
g128
tp324
a(I3
g128
tp325
a(I0
g126
tp326
a(I1
g128
tp327
a(I2
g128
tp328
a(I3
g128
tp329
a(I0
g126
tp330
a(I1
g128
tp331
a(I2
g184
tp332
a(I3
g126
tp333
a(I0
g128
tp334
a(I1
g184
tp335
a(I2
g184
tp336
a(I3
g126
tp337
a(I0
g128
tp338
a(I1
g184
tp339
a(I2
g128
tp340
a(I3
g126
tp341
a(I0
g126
tp342
a(I1
g184
tp343
a(I2
g128
tp344
a(I3
g184
tp345
a(I0
g184
tp346
a(I1
g126
tp347
a(I2
g184
tp348
a(I3
g184
tp349
a(I0
g184
tp350
a(I1
g126
tp351
a(I2
g186
tp352
a(I3
g184
tp353
a(I0
g184
tp354
a(I1
g184
tp355
a(I2
g128
tp356
a(I3
g184
tp357
a(I0
g128
tp358
a(I1
g184
tp359
a(I2
g126
tp360
a(I3
g126
tp361
a(I0
g184
tp362
a(I1
g184
tp363
a(I2
g186
tp364
a(I3
g126
tp365
a(I0
g128
tp366
a(I1
g128
tp367
a(I2
g186
tp368
a(I3
g126
tp369
a(I0
g128
tp370
a(I1
g184
tp371
a(I2
g126
tp372
a(I3
g186
tp373
a(I0
g128
tp374
a(I1
g128
tp375
a(I2
g126
tp376
a(I3
g126
tp377
a(I0
g128
tp378
a(I1
g128
tp379
a(I2
g186
tp380
a(I3
g126
tp381
a(I0
g128
tp382
a(I1
S'Stop'
p383
tp384
a(I2
g186
tp385
a(I3
g186
tp386
a(I0
g128
tp387
a(I1
g383
tp388
a(I2
g186
tp389
a(I3
g126
tp390
a(I0
g184
tp391
a(I1
g128
tp392
a(I2
g126
tp393
a(I3
g126
tp394
a(I0
g128
tp395
a(I1
g128
tp396
a(I2
g126
tp397
a(I3
g126
tp398
a(I0
g126
tp399
a(I1
g383
tp400
a(I2
g186
tp401
a(I3
g126
tp402
a(I0
g126
tp403
a(I1
g126
tp404
a(I2
g126
tp405
a(I3
g126
tp406
a(I0
g184
tp407
a(I1
g383
tp408
a(I2
g126
tp409
a(I3
g184
tp410
a(I0
g126
tp411
a(I1
g128
tp412
a(I2
g126
tp413
a(I3
g126
tp414
a(I0
g126
tp415
a(I1
g128
tp416
a(I2
g126
tp417
a(I3
g126
tp418
a(I0
g126
tp419
a(I1
g184
tp420
a(I2
g126
tp421
a(I3
g186
tp422
a(I0
g128
tp423
a(I1
g383
tp424
a(I2
g184
tp425
a(I3
g186
tp426
a(I0
g128
tp427
a(I1
g186
tp428
a(I2
g126
tp429
a(I3
g186
tp430
a(I0
g128
tp431
a(I1
g126
tp432
a(I2
g126
tp433
a(I3
g186
tp434
a(I0
g186
tp435
a(I1
g126
tp436
a(I2
g186
tp437
a(I3
g186
tp438
a(I0
g128
tp439
a(I1
g383
tp440
a(I2
g186
tp441
a(I3
g186
tp442
a(I0
g128
tp443
a(I1
g128
tp444
a(I2
g186
tp445
a(I3
g186
tp446
a(I0
g128
tp447
a(I1
g128
tp448
a(I2
g186
tp449
a(I3
g186
tp450
a(I0
g186
tp451
a(I1
g184
tp452
a(I2
g186
tp453
a(I3
g128
tp454
a(I0
g128
tp455
a(I1
g128
tp456
a(I2
g186
tp457
a(I3
g128
tp458
a(I0
g128
tp459
a(I1
g128
tp460
a(I2
g186
tp461
a(I3
g186
tp462
a(I0
g128
tp463
a(I1
g128
tp464
a(I2
g186
tp465
a(I3
g128
tp466
a(I0
g184
tp467
a(I1
g184
tp468
a(I2
g128
tp469
a(I3
g128
tp470
a(I0
g184
tp471
a(I1
g383
tp472
a(I2
g128
tp473
a(I3
g184
tp474
a(I0
g186
tp475
a(I1
g383
tp476
a(I2
g184
tp477
a(I3
g128
tp478
a(I0
g186
tp479
a(I1
g186
tp480
a(I2
g128
tp481
a(I3
g128
tp482
a(I0
g186
tp483
a(I1
g128
tp484
a(I2
g128
tp485
a(I3
g128
tp486
a(I0
g186
tp487
a(I1
g186
tp488
a(I2
g128
tp489
a(I3
g128
tp490
a(I0
g126
tp491
a(I1
g128
tp492
a(I2
g186
tp493
a(I3
g184
tp494
a(I0
g126
tp495
a(I1
g128
tp496
a(I2
g128
tp497
a(I3
g186
tp498
a(I0
g126
tp499
a(I1
g186
tp500
a(I2
g128
tp501
a(I3
g186
tp502
a(I0
g126
tp503
a(I1
g186
tp504
a(I2
g128
tp505
a(I3
g128
tp506
a(I0
g126
tp507
a(I1
g126
tp508
a(I2
g184
tp509
a(I3
g128
tp510
a(I0
g126
tp511
a(I1
g126
tp512
a(I2
g128
tp513
a(I3
g128
tp514
a(I0
g126
tp515
a(I1
g126
tp516
a(I2
g128
tp517
a(I3
g126
tp518
a(I0
g126
tp519
a(I1
g126
tp520
a(I2
g128
tp521
a(I3
g126
tp522
a(I0
g126
tp523
a(I1
g126
tp524
a(I2
g128
tp525
a(I3
g126
tp526
a(I0
g128
tp527
a(I1
g383
tp528
a(I2
g128
tp529
a(I3
g126
tp530
a(I0
g128
tp531
a(I1
g128
tp532
a(I2
g184
tp533
a(I3
g184
tp534
a(I0
g128
tp535
a(I1
g128
tp536
a(I2
g128
tp537
a(I3
g126
tp538
a(I0
g128
tp539
a(I1
g128
tp540
a(I2
g184
tp541
a(I3
g126
tp542
a(I0
g128
tp543
a(I1
g128
tp544
a(I2
g184
tp545
a(I3
g184
tp546
a(I0
g128
tp547
a(I1
g128
tp548
a(I2
g184
tp549
a(I3
g126
tp550
a(I0
g128
tp551
a(I1
g184
tp552
a(I2
g126
tp553
a(I3
g126
tp554
a(I0
g128
tp555
a(I1
g184
tp556
a(I2
g126
tp557
a(I3
g126
tp558
a(I0
g128
tp559
a(I1
g126
tp560
a(I2
g184
tp561
a(I3
g186
tp562
a(I0
g383
tp563
a(I1
g128
tp564
a(I2
g184
tp565
a(I3
g126
tp566
a(I0
g126
tp567
a(I1
g186
tp568
a(I2
g184
tp569
a(I3
g126
tp570
a(I0
g126
tp571
a(I1
g186
tp572
a(I2
g128
tp573
a(I3
g186
tp574
a(I0
g126
tp575
a(I1
g126
tp576
a(I2
g128
tp577
a(I3
g184
tp578
a(I0
g126
tp579
a(I1
g126
tp580
a(I2
g128
tp581
a(I3
g128
tp582
a(I0
g126
tp583
a(I1
g126
tp584
a(I2
g184
tp585
a(I3
g128
tp586
a(I0
g126
tp587
a(I1
g126
tp588
a(I2
g184
tp589
a(I3
g184
tp590
a(I0
g126
tp591
a(I1
g126
tp592
a(I2
g184
tp593
a(I3
g184
tp594
a(I0
g126
tp595
a(I1
g126
tp596
a(I2
g184
tp597
a(I3
g184
tp598
a(I0
g126
tp599
a(I1
g126
tp600
a(I2
g184
tp601
a(I3
g128
tp602
a(I0
g383
tp603
a(I1
g126
tp604
a(I2
g184
tp605
a(I3
g128
tp606
a(I0
g128
tp607
a(I1
g126
tp608
a(I2
g184
tp609
a(I3
g128
tp610
a(I0
g126
tp611
a(I1
g383
tp612
a(I2
g184
tp613
a(I3
g128
tp614
a(I0
g126
tp615
a(I1
g128
tp616
a(I2
g184
tp617
a(I3
g128
tp618
a(I0
g126
tp619
a(I1
g128
tp620
a(I2
g184
tp621
a(I3
g128
tp622
a(I0
g126
tp623
a(I1
g128
tp624
a(I2
g184
tp625
a(I3
g128
tp626
a(I0
g126
tp627
a(I1
g128
tp628
a(I2
g184
tp629
a(I3
g128
tp630
a(I0
g126
tp631
a(I1
g128
tp632
a(I2
g184
tp633
a(I3
g128
tp634
a(I0
g126
tp635
a(I1
g128
tp636
a(I2
g184
tp637
a(I3
g126
tp638
a(I0
g126
tp639
a(I1
g128
tp640
a(I2
g184
tp641
a(I3
g126
tp642
a(I0
g126
tp643
a(I1
g128
tp644
a(I2
g184
tp645
a(I3
g126
tp646
a(I0
g126
tp647
a(I1
g128
tp648
a(I2
g184
tp649
a(I3
g126
tp650
a(I0
g126
tp651
a(I1
g184
tp652
a(I2
g184
tp653
a(I3
g126
tp654
a(I0
g126
tp655
a(I1
g184
tp656
a(I2
g186
tp657
a(I3
g126
tp658
a(I0
g126
tp659
a(I1
g184
tp660
a(I2
g186
tp661
a(I3
g126
tp662
a(I0
g126
tp663
a(I1
g128
tp664
a(I2
g186
tp665
a(I3
g126
tp666
a(I0
g184
tp667
a(I1
g128
tp668
a(I2
g186
tp669
a(I3
g126
tp670
a(I0
g184
tp671
a(I1
g186
tp672
a(I2
g186
tp673
a(I3
g186
tp674
a(I0
g184
tp675
a(I1
g186
tp676
a(I2
g186
tp677
a(I3
g186
tp678
a(I0
g128
tp679
a(I1
g186
tp680
a(I2
g186
tp681
a(I3
g186
tp682
a(I0
g128
tp683
a(I1
g186
tp684
a(I2
g186
tp685
a(I3
g128
tp686
a(I0
g126
tp687
a(I1
g186
tp688
a(I2
g186
tp689
a(I3
g128
tp690
a(I0
g126
tp691
a(I1
g186
tp692
a(I2
g126
tp693
a(I3
g128
tp694
a(I0
g184
tp695
a(I1
g186
tp696
a(I2
g126
tp697
a(I3
g128
tp698
a(I0
g184
tp699
a(I1
g186
tp700
a(I2
g184
tp701
a(I3
g128
tp702
a(I0
g184
tp703
a(I1
g126
tp704
a(I2
g126
tp705
a(I3
g128
tp706
a(I0
g184
tp707
a(I1
g126
tp708
a(I2
g126
tp709
a(I3
g128
tp710
a(I0
g184
tp711
a(I1
g184
tp712
a(I2
g126
tp713
a(I3
g128
tp714
a(I0
g184
tp715
a(I1
g126
tp716
a(I2
g126
tp717
a(I3
g128
tp718
a(I0
g184
tp719
a(I1
g126
tp720
a(I2
g184
tp721
a(I3
g128
tp722
a(I0
g184
tp723
a(I1
g126
tp724
a(I2
g184
tp725
a(I3
g128
tp726
a(I0
g184
tp727
a(I1
g126
tp728
a(I2
g128
tp729
a(I3
g128
tp730
a(I0
g184
tp731
a(I1
g184
tp732
a(I2
g128
tp733
a(I3
g128
tp734
a(I0
g184
tp735
a(I1
g184
tp736
a(I2
g128
tp737
a(I3
g128
tp738
a(I0
g184
tp739
a(I1
g128
tp740
a(I2
g128
tp741
a(I3
g128
tp742
a(I0
g184
tp743
a(I1
g128
tp744
a(I2
g383
tp745
a(I3
g186
tp746
a(I0
g184
tp747
a(I1
g128
tp748
a(I2
g126
tp749
a(I3
g186
tp750
a(I0
g184
tp751
a(I1
g128
tp752
a(I2
g126
tp753
a(I3
g186
tp754
a(I0
g184
tp755
a(I1
g383
tp756
a(I2
g126
tp757
a(I3
g186
tp758
a(I0
g184
tp759
a(I1
g126
tp760
a(I2
g126
tp761
a(I3
g186
tp762
a(I0
g128
tp763
a(I1
g126
tp764
a(I2
g126
tp765
a(I3
g186
tp766
a(I0
g128
tp767
a(I1
g126
tp768
a(I2
g126
tp769
a(I3
g186
tp770
a(I0
g128
tp771
a(I1
g126
tp772
a(I2
g126
tp773
a(I3
g186
tp774
a(I0
g186
tp775
a(I1
g186
tp776
a(I2
g126
tp777
a(I3
g186
tp778
a(I0
g128
tp779
a(I1
g186
tp780
a(I2
g126
tp781
a(I3
g186
tp782
a(I0
g128
tp783
a(I1
g186
tp784
a(I2
g126
tp785
a(I3
g186
tp786
a(I0
g128
tp787
a(I1
g126
tp788
a(I2
g126
tp789
a(I3
g186
tp790
a(I0
g383
tp791
a(I1
g126
tp792
a(I2
g126
tp793
a(I3
g186
tp794
a(I0
g126
tp795
a(I1
g126
tp796
a(I2
g126
tp797
a(I3
g186
tp798
a(I0
g126
tp799
a(I1
g186
tp800
a(I2
g126
tp801
a(I3
g186
tp802
a(I0
g126
tp803
a(I1
g126
tp804
a(I2
g126
tp805
a(I3
g186
tp806
a(I0
g126
tp807
a(I1
g126
tp808
a(I2
g126
tp809
a(I3
g186
tp810
a(I0
g184
tp811
a(I1
g126
tp812
a(I2
g184
tp813
a(I3
g126
tp814
a(I0
g184
tp815
a(I1
g184
tp816
a(I2
g184
tp817
a(I3
g126
tp818
a(I0
g383
tp819
a(I1
g184
tp820
a(I2
g184
tp821
a(I3
g126
tp822
a(I0
g128
tp823
a(I1
g126
tp824
a(I2
g184
tp825
a(I3
g126
tp826
a(I0
g126
tp827
a(I1
g383
tp828
a(I2
g184
tp829
a(I3
g126
tp830
a(I0
g126
tp831
a(I1
g186
tp832
a(I2
g184
tp833
a(I3
g126
tp834
a(I0
g126
tp835
a(I1
g186
tp836
a(I2
g184
tp837
a(I3
g186
tp838
a(I0
g126
tp839
a(I1
g128
tp840
a(I2
g184
tp841
a(I3
g186
tp842
a(I0
g126
tp843
a(I1
g128
tp844
a(I2
g184
tp845
a(I3
g186
tp846
a(I0
g126
tp847
a(I1
g128
tp848
a(I2
g184
tp849
a(I3
g186
tp850
a(I0
g126
tp851
a(I1
g128
tp852
a(I2
g184
tp853
a(I3
g184
tp854
a(I0
g126
tp855
a(I1
g184
tp856
a(I2
g184
tp857
a(I3
g126
tp858
a(I0
g126
tp859
a(I1
g184
tp860
a(I2
g184
tp861
a(I3
g126
tp862
a(I0
g126
tp863
a(I1
g383
tp864
a(I2
g184
tp865
a(I3
g186
tp866
a(I0
g126
tp867
a(I1
g383
tp868
a(I2
g128
tp869
a(I3
g126
tp870
a(I0
g126
tp871
a(I1
g383
tp872
a(I2
g128
tp873
a(I3
g186
tp874
a(I0
g126
tp875
a(I1
g383
tp876
a(I2
g184
tp877
a(I3
g186
tp878
a(I0
g126
tp879
a(I1
g383
tp880
a(I2
g184
tp881
a(I3
g128
tp882
a(I0
g184
tp883
a(I1
g383
tp884
a(I2
g184
tp885
a(I3
g128
tp886
a(I0
g184
tp887
a(I1
g383
tp888
a(I2
g128
tp889
a(I3
g128
tp890
a(I0
g184
tp891
a(I1
g383
tp892
a(I2
g128
tp893
a(I3
g126
tp894
a(I0
g184
tp895
a(I1
g383
tp896
a(I2
g128
tp897
a(I3
g126
tp898
a(I0
g184
tp899
a(I1
g186
tp900
a(I2
g128
tp901
a(I3
g126
tp902
a(I0
g184
tp903
a(I1
g186
tp904
a(I2
g128
tp905
a(I3
g126
tp906
a(I0
g184
tp907
a(I1
g186
tp908
a(I2
g128
tp909
a(I3
g126
tp910
a(I0
g184
tp911
a(I1
g186
tp912
a(I2
g128
tp913
a(I3
g126
tp914
asS'length'
p915
I1200
sS'agents'
p916
(lp917
(igame
Agent
p918
(dp919
S'index'
p920
I0
sba(igame
Agent
p921
(dp922
g920
I0
sba(igame
Agent
p923
(dp924
g920
I0
sba(igame
Agent
p925
(dp926
g920
I0
sbasS'redTeamName'
p927
S'HAL9001'
p928
s.