(dp1
S'layout'
p2
(ilayout
Layout
p3
(dp4
S'capsules'
p5
(lp6
(I10
I1
tp7
a(I20
I7
tp8
a(I13
I10
tp9
a(I23
I16
tp10
asS'numGhosts'
p11
I4
sS'food'
p12
(igame
Grid
p13
(dp14
S'CELLS_PER_INT'
p15
I30
sS'width'
p16
I34
sS'data'
p17
(lp18
(lp19
I00
aI00
aI00
aI00
aI00
aI00
aI00
aI00
aI00
aI00
aI00
aI00
aI00
aI00
aI00
aI00
aI00
aI00
aa(lp20
I00
aI00
aI00
aI00
aI00
aI00
aI00
aI00
aI00
aI00
aI00
aI00
aI00
aI00
aI00
aI00
aI00
aI00
aa(lp21
I00
aI00
aI00
aI00
aI00
aI00
aI00
aI00
aI00
aI00
aI00
aI00
aI00
aI00
aI00
aI00
aI00
aI00
aa(lp22
I00
aI00
aI00
aI00
aI00
aI00
aI00
aI00
aI00
aI00
aI01
aI00
aI00
aI00
aI00
aI00
aI00
aI00
aa(lp23
I00
aI00
aI00
aI00
aI00
aI00
aI00
aI00
aI00
aI00
aI00
aI00
aI00
aI00
aI00
aI00
aI00
aI00
aa(lp24
I00
aI00
aI00
aI00
aI00
aI00
aI01
aI00
aI00
aI00
aI00
aI00
aI00
aI00
aI00
aI01
aI01
aI00
aa(lp25
I00
aI00
aI00
aI00
aI00
aI01
aI00
aI01
aI01
aI00
aI00
aI00
aI00
aI00
aI00
aI00
aI00
aI00
aa(lp26
I00
aI00
aI01
aI00
aI00
aI00
aI00
aI00
aI01
aI00
aI00
aI00
aI00
aI00
aI00
aI01
aI01
aI00
aa(lp27
I00
aI00
aI00
aI00
aI01
aI00
aI01
aI00
aI01
aI00
aI00
aI00
aI00
aI01
aI00
aI00
aI00
aI00
aa(lp28
I00
aI00
aI01
aI00
aI00
aI00
aI00
aI00
aI00
aI00
aI00
aI00
aI00
aI00
aI00
aI00
aI00
aI00
aa(lp29
I00
aI00
aI00
aI00
aI00
aI00
aI00
aI00
aI00
aI00
aI00
aI00
aI00
aI00
aI00
aI00
aI00
aI00
aa(lp30
I00
aI00
aI00
aI00
aI00
aI01
aI00
aI00
aI00
aI01
aI01
aI00
aI00
aI00
aI00
aI01
aI01
aI00
aa(lp31
I00
aI00
aI01
aI00
aI00
aI00
aI00
aI00
aI00
aI00
aI00
aI00
aI00
aI00
aI00
aI00
aI00
aI00
aa(lp32
I00
aI01
aI00
aI00
aI01
aI01
aI01
aI00
aI00
aI00
aI00
aI00
aI00
aI00
aI00
aI01
aI01
aI00
aa(lp33
I00
aI00
aI01
aI00
aI00
aI00
aI00
aI00
aI00
aI00
aI00
aI00
aI00
aI00
aI00
aI00
aI00
aI00
aa(lp34
I00
aI00
aI00
aI00
aI00
aI00
aI00
aI00
aI00
aI00
aI00
aI00
aI00
aI00
aI00
aI00
aI01
aI00
aa(lp35
I00
aI00
aI00
aI00
aI00
aI00
aI00
aI00
aI00
aI00
aI00
aI00
aI00
aI00
aI00
aI00
aI00
aI00
aa(lp36
I00
aI00
aI00
aI00
aI00
aI00
aI00
aI00
aI00
aI00
aI00
aI00
aI00
aI00
aI00
aI00
aI00
aI00
aa(lp37
I00
aI01
aI00
aI00
aI00
aI00
aI00
aI00
aI00
aI00
aI00
aI00
aI00
aI00
aI00
aI00
aI00
aI00
aa(lp38
I00
aI00
aI00
aI00
aI00
aI00
aI00
aI00
aI00
aI00
aI00
aI00
aI00
aI00
aI00
aI01
aI00
aI00
aa(lp39
I00
aI01
aI01
aI00
aI00
aI00
aI00
aI00
aI00
aI00
aI00
aI01
aI01
aI01
aI00
aI00
aI01
aI00
aa(lp40
I00
aI00
aI00
aI00
aI00
aI00
aI00
aI00
aI00
aI00
aI00
aI00
aI00
aI00
aI00
aI01
aI00
aI00
aa(lp41
I00
aI01
aI01
aI00
aI00
aI00
aI00
aI01
aI01
aI00
aI00
aI00
aI01
aI00
aI00
aI00
aI00
aI00
aa(lp42
I00
aI00
aI00
aI00
aI00
aI00
aI00
aI00
aI00
aI00
aI00
aI00
aI00
aI00
aI00
aI00
aI00
aI00
aa(lp43
I00
aI00
aI00
aI00
aI00
aI00
aI00
aI00
aI00
aI00
aI00
aI00
aI00
aI00
aI00
aI01
aI00
aI00
aa(lp44
I00
aI00
aI00
aI00
aI01
aI00
aI00
aI00
aI00
aI01
aI00
aI01
aI00
aI01
aI00
aI00
aI00
aI00
aa(lp45
I00
aI01
aI01
aI00
aI00
aI00
aI00
aI00
aI00
aI01
aI00
aI00
aI00
aI00
aI00
aI01
aI00
aI00
aa(lp46
I00
aI00
aI00
aI00
aI00
aI00
aI00
aI00
aI00
aI01
aI01
aI00
aI01
aI00
aI00
aI00
aI00
aI00
aa(lp47
I00
aI01
aI01
aI00
aI00
aI00
aI00
aI00
aI00
aI00
aI00
aI01
aI00
aI00
aI00
aI00
aI00
aI00
aa(lp48
I00
aI00
aI00
aI00
aI00
aI00
aI00
aI00
aI00
aI00
aI00
aI00
aI00
aI00
aI00
aI00
aI00
aI00
aa(lp49
I00
aI00
aI00
aI00
aI00
aI00
aI00
aI01
aI00
aI00
aI00
aI00
aI00
aI00
aI00
aI00
aI00
aI00
aa(lp50
I00
aI00
aI00
aI00
aI00
aI00
aI00
aI00
aI00
aI00
aI00
aI00
aI00
aI00
aI00
aI00
aI00
aI00
aa(lp51
I00
aI00
aI00
aI00
aI00
aI00
aI00
aI00
aI00
aI00
aI00
aI00
aI00
aI00
aI00
aI00
aI00
aI00
aa(lp52
I00
aI00
aI00
aI00
aI00
aI00
aI00
aI00
aI00
aI00
aI00
aI00
aI00
aI00
aI00
aI00
aI00
aI00
aasS'height'
p53
I18
sbsS'agentPositions'
p54
(lp55
(I00
(I1
I2
tp56
tp57
a(I00
(I32
I15
tp58
tp59
a(I00
(I1
I1
tp60
tp61
a(I00
(I32
I16
tp62
tp63
asg53
I18
sg16
I34
sS'walls'
p64
(igame
Grid
p65
(dp66
g15
I30
sg16
I34
sg17
(lp67
(lp68
I01
aI01
aI01
aI01
aI01
aI01
aI01
aI01
aI01
aI01
aI01
aI01
aI01
aI01
aI01
aI01
aI01
aI01
aa(lp69
I01
aI00
aI00
aI00
aI00
aI00
aI00
aI00
aI00
aI00
aI00
aI00
aI00
aI00
aI00
aI00
aI00
aI01
aa(lp70
I01
aI01
aI01
aI01
aI01
aI01
aI01
aI01
aI01
aI01
aI01
aI01
aI01
aI01
aI01
aI01
aI00
aI01
aa(lp71
I01
aI00
aI00
aI00
aI00
aI00
aI00
aI00
aI00
aI00
aI00
aI00
aI00
aI00
aI00
aI00
aI00
aI01
aa(lp72
I01
aI01
aI01
aI01
aI01
aI01
aI00
aI01
aI01
aI00
aI01
aI01
aI01
aI00
aI01
aI01
aI01
aI01
aa(lp73
I01
aI00
aI00
aI01
aI00
aI00
aI00
aI01
aI00
aI00
aI00
aI00
aI00
aI00
aI00
aI00
aI00
aI01
aa(lp74
I01
aI00
aI01
aI01
aI00
aI00
aI00
aI00
aI00
aI01
aI01
aI01
aI00
aI01
aI01
aI01
aI01
aI01
aa(lp75
I01
aI00
aI00
aI01
aI01
aI00
aI01
aI01
aI00
aI01
aI00
aI00
aI00
aI00
aI01
aI00
aI00
aI01
aa(lp76
I01
aI00
aI01
aI01
aI00
aI00
aI00
aI01
aI00
aI01
aI00
aI00
aI00
aI00
aI01
aI01
aI00
aI01
aa(lp77
I01
aI00
aI00
aI01
aI01
aI00
aI01
aI01
aI01
aI01
aI01
aI00
aI01
aI00
aI00
aI00
aI00
aI01
aa(lp78
I01
aI00
aI01
aI01
aI00
aI00
aI01
aI00
aI00
aI01
aI00
aI00
aI00
aI00
aI01
aI00
aI01
aI01
aa(lp79
I01
aI00
aI00
aI00
aI00
aI00
aI00
aI00
aI00
aI00
aI00
aI00
aI00
aI00
aI01
aI00
aI00
aI01
aa(lp80
I01
aI01
aI00
aI01
aI01
aI01
aI01
aI01
aI01
aI01
aI01
aI01
aI00
aI01
aI01
aI01
aI01
aI01
aa(lp81
I01
aI00
aI00
aI01
aI00
aI00
aI00
aI00
aI00
aI00
aI00
aI00
aI00
aI00
aI00
aI00
aI00
aI01
aa(lp82
I01
aI01
aI00
aI01
aI01
aI01
aI01
aI00
aI01
aI01
aI01
aI01
aI00
aI01
aI01
aI01
aI01
aI01
aa(lp83
I01
aI00
aI00
aI01
aI00
aI00
aI00
aI00
aI01
aI00
aI00
aI00
aI00
aI00
aI00
aI01
aI00
aI01
aa(lp84
I01
aI00
aI00
aI01
aI00
aI01
aI00
aI00
aI01
aI00
aI01
aI00
aI00
aI00
aI00
aI00
aI00
aI01
aa(lp85
I01
aI00
aI00
aI00
aI00
aI00
aI00
aI01
aI00
aI01
aI00
aI00
aI01
aI00
aI01
aI00
aI00
aI01
aa(lp86
I01
aI00
aI01
aI00
aI00
aI00
aI00
aI00
aI00
aI01
aI00
aI00
aI00
aI00
aI01
aI00
aI00
aI01
aa(lp87
I01
aI01
aI01
aI01
aI01
aI00
aI01
aI01
aI01
aI01
aI00
aI01
aI01
aI01
aI01
aI00
aI01
aI01
aa(lp88
I01
aI00
aI00
aI00
aI00
aI00
aI00
aI00
aI00
aI00
aI00
aI00
aI00
aI00
aI01
aI00
aI00
aI01
aa(lp89
I01
aI01
aI01
aI01
aI01
aI00
aI01
aI01
aI01
aI01
aI01
aI01
aI01
aI01
aI01
aI00
aI01
aI01
aa(lp90
I01
aI00
aI00
aI01
aI00
aI00
aI00
aI00
aI00
aI00
aI00
aI00
aI00
aI00
aI00
aI00
aI00
aI01
aa(lp91
I01
aI01
aI00
aI01
aI00
aI00
aI00
aI00
aI01
aI00
aI00
aI01
aI00
aI00
aI01
aI01
aI00
aI01
aa(lp92
I01
aI00
aI00
aI00
aI00
aI01
aI00
aI01
aI01
aI01
aI01
aI01
aI00
aI01
aI01
aI00
aI00
aI01
aa(lp93
I01
aI00
aI01
aI01
aI00
aI00
aI00
aI00
aI01
aI00
aI01
aI00
aI00
aI00
aI01
aI01
aI00
aI01
aa(lp94
I01
aI00
aI00
aI01
aI00
aI00
aI00
aI00
aI01
aI00
aI01
aI01
aI00
aI01
aI01
aI00
aI00
aI01
aa(lp95
I01
aI01
aI01
aI01
aI01
aI00
aI01
aI01
aI01
aI00
aI00
aI00
aI00
aI00
aI01
aI01
aI00
aI01
aa(lp96
I01
aI00
aI00
aI00
aI00
aI00
aI00
aI00
aI00
aI00
aI01
aI00
aI00
aI00
aI01
aI00
aI00
aI01
aa(lp97
I01
aI01
aI01
aI01
aI00
aI01
aI01
aI01
aI00
aI01
aI01
aI00
aI01
aI01
aI01
aI01
aI01
aI01
aa(lp98
I01
aI00
aI00
aI00
aI00
aI00
aI00
aI00
aI00
aI00
aI00
aI00
aI00
aI00
aI00
aI00
aI00
aI01
aa(lp99
I01
aI00
aI01
aI01
aI01
aI01
aI01
aI01
aI01
aI01
aI01
aI01
aI01
aI01
aI01
aI01
aI01
aI01
aa(lp100
I01
aI00
aI00
aI00
aI00
aI00
aI00
aI00
aI00
aI00
aI00
aI00
aI00
aI00
aI00
aI00
aI00
aI01
aa(lp101
I01
aI01
aI01
aI01
aI01
aI01
aI01
aI01
aI01
aI01
aI01
aI01
aI01
aI01
aI01
aI01
aI01
aI01
aasg53
I18
sbsS'layoutText'
p102
(lp103
S'%%%%%%%%%%%%%%%%%%%%%%%%%%%%%%%%%%'
p104
aS'%   %.%.  %.%.%.   %.% o     % %4%'
p105
aS'% % %.%.%  .%.%%   . . %.%.% % %2%'
p106
aS'% % % %%% %%% %  %%%%% %%%%%%% % %'
p107
aS'% %   % .   % %    %.%  %.%  % % %'
p108
aS'% % %    %       % %.%.    . % % %'
p109
aS'% % % %     % %    %.% %%.% .  % %'
p110
aS'% %.% %  % .%o% %    %  %%%.%% % %'
p111
aS'% %   %%%%%.% %  %%% %  %... % % %'
p112
aS'% % % ...%  % %%%  % %.%%%%%   % %'
p113
aS'% % %%.%%%  %    % %o%. %  % %.% %'
p114
aS'% %  . %.%% %.%    % %     % % % %'
p115
aS'% % % .    .%.% %       %    % % %'
p116
aS'% % %  %.%  %.%    % %   . %   % %'
p117
aS'% % %%%%%%% %%%%%  % %%% %%% % % %'
p118
aS'%1% % %.%.% . .   %%.%.  %.%.% % %'
p119
aS'%3% %     o %.%   .%.%.%  .%.%   %'
p120
aS'%%%%%%%%%%%%%%%%%%%%%%%%%%%%%%%%%%'
p121
asbsS'blueTeamName'
p122
S'HAL9001'
p123
sS'actions'
p124
(lp125
(I0
S'North'
p126
tp127
a(I1
S'South'
p128
tp129
a(I2
g126
tp130
a(I3
g128
tp131
a(I0
g126
tp132
a(I1
g128
tp133
a(I2
g126
tp134
a(I3
g128
tp135
a(I0
g126
tp136
a(I1
g128
tp137
a(I2
g126
tp138
a(I3
g128
tp139
a(I0
g126
tp140
a(I1
g128
tp141
a(I2
g126
tp142
a(I3
g128
tp143
a(I0
g126
tp144
a(I1
g128
tp145
a(I2
g126
tp146
a(I3
g128
tp147
a(I0
g126
tp148
a(I1
g128
tp149
a(I2
g126
tp150
a(I3
g128
tp151
a(I0
g126
tp152
a(I1
g128
tp153
a(I2
g126
tp154
a(I3
g128
tp155
a(I0
g126
tp156
a(I1
g128
tp157
a(I2
g126
tp158
a(I3
g128
tp159
a(I0
g126
tp160
a(I1
g128
tp161
a(I2
g126
tp162
a(I3
g128
tp163
a(I0
g126
tp164
a(I1
g128
tp165
a(I2
g126
tp166
a(I3
g128
tp167
a(I0
g126
tp168
a(I1
g128
tp169
a(I2
g126
tp170
a(I3
g128
tp171
a(I0
g126
tp172
a(I1
g128
tp173
a(I2
g126
tp174
a(I3
g128
tp175
a(I0
g126
tp176
a(I1
g128
tp177
a(I2
g126
tp178
a(I3
g128
tp179
a(I0
g126
tp180
a(I1
g128
tp181
a(I2
g126
tp182
a(I3
g128
tp183
a(I0
S'East'
p184
tp185
a(I1
S'West'
p186
tp187
a(I2
g126
tp188
a(I3
g128
tp189
a(I0
g184
tp190
a(I1
g186
tp191
a(I2
g184
tp192
a(I3
g186
tp193
a(I0
g128
tp194
a(I1
g126
tp195
a(I2
g184
tp196
a(I3
g186
tp197
a(I0
g128
tp198
a(I1
g126
tp199
a(I2
g128
tp200
a(I3
g126
tp201
a(I0
g128
tp202
a(I1
g126
tp203
a(I2
g128
tp204
a(I3
g126
tp205
a(I0
g184
tp206
a(I1
g186
tp207
a(I2
g128
tp208
a(I3
g126
tp209
a(I0
g184
tp210
a(I1
g186
tp211
a(I2
g184
tp212
a(I3
g186
tp213
a(I0
g128
tp214
a(I1
g126
tp215
a(I2
g184
tp216
a(I3
g186
tp217
a(I0
g184
tp218
a(I1
g126
tp219
a(I2
g126
tp220
a(I3
g126
tp221
a(I0
g184
tp222
a(I1
g126
tp223
a(I2
g126
tp224
a(I3
g186
tp225
a(I0
g126
tp226
a(I1
g126
tp227
a(I2
g126
tp228
a(I3
g186
tp229
a(I0
g184
tp230
a(I1
g126
tp231
a(I2
g128
tp232
a(I3
g186
tp233
a(I0
g184
tp234
a(I1
g186
tp235
a(I2
g128
tp236
a(I3
g128
tp237
a(I0
g184
tp238
a(I1
g126
tp239
a(I2
g128
tp240
a(I3
g186
tp241
a(I0
g128
tp242
a(I1
g126
tp243
a(I2
g186
tp244
a(I3
g186
tp245
a(I0
g184
tp246
a(I1
g126
tp247
a(I2
g186
tp248
a(I3
g186
tp249
a(I0
g184
tp250
a(I1
g186
tp251
a(I2
g128
tp252
a(I3
g126
tp253
a(I0
g184
tp254
a(I1
g186
tp255
a(I2
g128
tp256
a(I3
g186
tp257
a(I0
g184
tp258
a(I1
g186
tp259
a(I2
g128
tp260
a(I3
g186
tp261
a(I0
g184
tp262
a(I1
g186
tp263
a(I2
g128
tp264
a(I3
g186
tp265
a(I0
g126
tp266
a(I1
g186
tp267
a(I2
g184
tp268
a(I3
g186
tp269
a(I0
g184
tp270
a(I1
g126
tp271
a(I2
g184
tp272
a(I3
g128
tp273
a(I0
g126
tp274
a(I1
g126
tp275
a(I2
g126
tp276
a(I3
g186
tp277
a(I0
g126
tp278
a(I1
g126
tp279
a(I2
g126
tp280
a(I3
g128
tp281
a(I0
g184
tp282
a(I1
g186
tp283
a(I2
g126
tp284
a(I3
g128
tp285
a(I0
g184
tp286
a(I1
g186
tp287
a(I2
g184
tp288
a(I3
g186
tp289
a(I0
g184
tp290
a(I1
g186
tp291
a(I2
g184
tp292
a(I3
g186
tp293
a(I0
g126
tp294
a(I1
g186
tp295
a(I2
g126
tp296
a(I3
g186
tp297
a(I0
g126
tp298
a(I1
g186
tp299
a(I2
g184
tp300
a(I3
g186
tp301
a(I0
g126
tp302
a(I1
g186
tp303
a(I2
g184
tp304
a(I3
g128
tp305
a(I0
g126
tp306
a(I1
g126
tp307
a(I2
g184
tp308
a(I3
g126
tp309
a(I0
g126
tp310
a(I1
g186
tp311
a(I2
g128
tp312
a(I3
g186
tp313
a(I0
g126
tp314
a(I1
g184
tp315
a(I2
g128
tp316
a(I3
g186
tp317
a(I0
g126
tp318
a(I1
g128
tp319
a(I2
g184
tp320
a(I3
g126
tp321
a(I0
g126
tp322
a(I1
g128
tp323
a(I2
g126
tp324
a(I3
g126
tp325
a(I0
g126
tp326
a(I1
g128
tp327
a(I2
g184
tp328
a(I3
g126
tp329
a(I0
g126
tp330
a(I1
g128
tp331
a(I2
g184
tp332
a(I3
g186
tp333
a(I0
g126
tp334
a(I1
S'Stop'
p335
tp336
a(I2
g184
tp337
a(I3
g186
tp338
a(I0
g126
tp339
a(I1
g128
tp340
a(I2
g184
tp341
a(I3
g186
tp342
a(I0
g126
tp343
a(I1
g184
tp344
a(I2
g184
tp345
a(I3
g128
tp346
a(I0
g126
tp347
a(I1
g184
tp348
a(I2
g128
tp349
a(I3
g126
tp350
a(I0
g184
tp351
a(I1
g128
tp352
a(I2
g186
tp353
a(I3
g126
tp354
a(I0
g184
tp355
a(I1
g126
tp356
a(I2
g126
tp357
a(I3
g128
tp358
a(I0
g128
tp359
a(I1
g186
tp360
a(I2
g126
tp361
a(I3
g186
tp362
a(I0
g128
tp363
a(I1
g186
tp364
a(I2
g184
tp365
a(I3
g186
tp366
a(I0
g128
tp367
a(I1
g186
tp368
a(I2
g128
tp369
a(I3
g126
tp370
a(I0
g184
tp371
a(I1
g128
tp372
a(I2
g128
tp373
a(I3
g126
tp374
a(I0
g184
tp375
a(I1
g128
tp376
a(I2
g186
tp377
a(I3
g126
tp378
a(I0
g128
tp379
a(I1
g184
tp380
a(I2
g128
tp381
a(I3
g184
tp382
a(I0
g184
tp383
a(I1
g335
tp384
a(I2
g128
tp385
a(I3
g184
tp386
a(I0
g184
tp387
a(I1
g186
tp388
a(I2
g126
tp389
a(I3
g186
tp390
a(I0
g184
tp391
a(I1
g128
tp392
a(I2
g126
tp393
a(I3
g186
tp394
a(I0
g128
tp395
a(I1
g128
tp396
a(I2
g126
tp397
a(I3
g128
tp398
a(I0
g184
tp399
a(I1
g128
tp400
a(I2
g186
tp401
a(I3
g128
tp402
a(I0
g184
tp403
a(I1
g128
tp404
a(I2
g186
tp405
a(I3
g186
tp406
a(I0
g126
tp407
a(I1
g128
tp408
a(I2
g126
tp409
a(I3
g128
tp410
a(I0
g184
tp411
a(I1
g128
tp412
a(I2
g126
tp413
a(I3
g184
tp414
a(I0
g184
tp415
a(I1
g128
tp416
a(I2
g126
tp417
a(I3
g184
tp418
a(I0
g184
tp419
a(I1
g128
tp420
a(I2
g126
tp421
a(I3
g184
tp422
a(I0
g184
tp423
a(I1
g128
tp424
a(I2
g128
tp425
a(I3
g184
tp426
a(I0
g184
tp427
a(I1
g128
tp428
a(I2
g128
tp429
a(I3
g184
tp430
a(I0
g184
tp431
a(I1
g128
tp432
a(I2
g128
tp433
a(I3
g184
tp434
a(I0
g128
tp435
a(I1
g128
tp436
a(I2
g128
tp437
a(I3
g128
tp438
a(I0
g184
tp439
a(I1
g128
tp440
a(I2
g186
tp441
a(I3
g128
tp442
a(I0
g128
tp443
a(I1
g128
tp444
a(I2
g186
tp445
a(I3
g128
tp446
a(I0
g184
tp447
a(I1
g186
tp448
a(I2
g126
tp449
a(I3
g128
tp450
a(I0
g184
tp451
a(I1
g186
tp452
a(I2
g186
tp453
a(I3
g186
tp454
a(I0
g184
tp455
a(I1
g126
tp456
a(I2
g128
tp457
a(I3
g186
tp458
a(I0
g126
tp459
a(I1
g126
tp460
a(I2
g128
tp461
a(I3
g126
tp462
a(I0
g126
tp463
a(I1
g126
tp464
a(I2
g184
tp465
a(I3
g128
tp466
a(I0
g126
tp467
a(I1
g186
tp468
a(I2
g126
tp469
a(I3
g186
tp470
a(I0
g128
tp471
a(I1
g186
tp472
a(I2
g186
tp473
a(I3
g186
tp474
a(I0
g128
tp475
a(I1
g126
tp476
a(I2
g128
tp477
a(I3
g126
tp478
a(I0
g128
tp479
a(I1
g186
tp480
a(I2
g128
tp481
a(I3
g128
tp482
a(I0
g128
tp483
a(I1
g186
tp484
a(I2
g184
tp485
a(I3
g184
tp486
a(I0
g128
tp487
a(I1
g128
tp488
a(I2
g128
tp489
a(I3
g184
tp490
a(I0
g128
tp491
a(I1
g186
tp492
a(I2
g128
tp493
a(I3
g184
tp494
a(I0
g128
tp495
a(I1
g186
tp496
a(I2
g186
tp497
a(I3
g184
tp498
a(I0
g128
tp499
a(I1
g186
tp500
a(I2
g128
tp501
a(I3
g126
tp502
a(I0
g128
tp503
a(I1
g126
tp504
a(I2
g184
tp505
a(I3
g184
tp506
a(I0
g128
tp507
a(I1
g186
tp508
a(I2
g126
tp509
a(I3
g184
tp510
a(I0
g128
tp511
a(I1
g186
tp512
a(I2
g126
tp513
a(I3
g184
tp514
a(I0
g128
tp515
a(I1
g186
tp516
a(I2
g126
tp517
a(I3
g184
tp518
a(I0
g126
tp519
a(I1
g126
tp520
a(I2
g128
tp521
a(I3
g184
tp522
a(I0
g126
tp523
a(I1
g126
tp524
a(I2
g128
tp525
a(I3
g184
tp526
a(I0
g126
tp527
a(I1
g126
tp528
a(I2
g128
tp529
a(I3
g126
tp530
a(I0
g126
tp531
a(I1
g126
tp532
a(I2
g186
tp533
a(I3
g126
tp534
a(I0
g184
tp535
a(I1
g126
tp536
a(I2
g126
tp537
a(I3
g126
tp538
a(I0
g184
tp539
a(I1
g186
tp540
a(I2
g184
tp541
a(I3
g126
tp542
a(I0
g126
tp543
a(I1
g186
tp544
a(I2
g128
tp545
a(I3
g186
tp546
a(I0
g126
tp547
a(I1
g186
tp548
a(I2
g128
tp549
a(I3
g186
tp550
a(I0
g126
tp551
a(I1
g126
tp552
a(I2
g128
tp553
a(I3
g126
tp554
a(I0
g126
tp555
a(I1
g186
tp556
a(I2
g128
tp557
a(I3
g186
tp558
a(I0
g126
tp559
a(I1
g126
tp560
a(I2
g186
tp561
a(I3
g186
tp562
a(I0
g126
tp563
a(I1
g186
tp564
a(I2
g126
tp565
a(I3
g128
tp566
a(I0
g126
tp567
a(I1
g186
tp568
a(I2
g184
tp569
a(I3
g128
tp570
a(I0
g126
tp571
a(I1
g186
tp572
a(I2
g126
tp573
a(I3
g128
tp574
a(I0
g126
tp575
a(I1
g126
tp576
a(I2
g126
tp577
a(I3
g126
tp578
a(I0
g126
tp579
a(I1
g126
tp580
a(I2
g126
tp581
a(I3
g126
tp582
a(I0
g186
tp583
a(I1
g126
tp584
a(I2
g126
tp585
a(I3
g126
tp586
a(I0
g186
tp587
a(I1
g126
tp588
a(I2
g126
tp589
a(I3
g126
tp590
a(I0
g126
tp591
a(I1
g128
tp592
a(I2
g126
tp593
a(I3
g126
tp594
a(I0
g128
tp595
a(I1
g128
tp596
a(I2
g126
tp597
a(I3
g126
tp598
a(I0
g184
tp599
a(I1
g128
tp600
a(I2
g184
tp601
a(I3
g126
tp602
a(I0
g184
tp603
a(I1
g128
tp604
a(I2
g186
tp605
a(I3
g128
tp606
a(I0
g126
tp607
a(I1
g186
tp608
a(I2
g126
tp609
a(I3
g126
tp610
a(I0
g184
tp611
a(I1
g186
tp612
a(I2
g186
tp613
a(I3
g126
tp614
a(I0
g184
tp615
a(I1
g128
tp616
a(I2
g128
tp617
a(I3
g186
tp618
a(I0
g128
tp619
a(I1
g128
tp620
a(I2
g184
tp621
a(I3
g186
tp622
a(I0
g126
tp623
a(I1
g128
tp624
a(I2
g126
tp625
a(I3
g126
tp626
a(I0
g184
tp627
a(I1
g126
tp628
a(I2
g126
tp629
a(I3
g186
tp630
a(I0
g184
tp631
a(I1
g186
tp632
a(I2
g126
tp633
a(I3
g186
tp634
a(I0
g128
tp635
a(I1
g126
tp636
a(I2
g126
tp637
a(I3
g186
tp638
a(I0
g126
tp639
a(I1
g126
tp640
a(I2
g126
tp641
a(I3
g184
tp642
a(I0
g186
tp643
a(I1
g126
tp644
a(I2
g126
tp645
a(I3
g126
tp646
a(I0
g186
tp647
a(I1
g186
tp648
a(I2
g126
tp649
a(I3
g126
tp650
a(I0
g186
tp651
a(I1
g126
tp652
a(I2
g126
tp653
a(I3
g184
tp654
a(I0
g186
tp655
a(I1
g126
tp656
a(I2
g126
tp657
a(I3
g184
tp658
a(I0
g128
tp659
a(I1
g184
tp660
a(I2
g126
tp661
a(I3
g126
tp662
a(I0
g128
tp663
a(I1
g186
tp664
a(I2
g126
tp665
a(I3
g128
tp666
a(I0
g128
tp667
a(I1
g126
tp668
a(I2
g126
tp669
a(I3
g186
tp670
a(I0
g184
tp671
a(I1
g186
tp672
a(I2
g126
tp673
a(I3
g186
tp674
a(I0
g128
tp675
a(I1
g186
tp676
a(I2
g126
tp677
a(I3
g126
tp678
a(I0
g184
tp679
a(I1
g128
tp680
a(I2
g126
tp681
a(I3
g128
tp682
a(I0
g184
tp683
a(I1
g126
tp684
a(I2
g184
tp685
a(I3
g128
tp686
a(I0
g126
tp687
a(I1
g184
tp688
a(I2
g184
tp689
a(I3
g128
tp690
a(I0
g128
tp691
a(I1
g184
tp692
a(I2
g128
tp693
a(I3
g186
tp694
a(I0
g128
tp695
a(I1
g128
tp696
a(I2
g128
tp697
a(I3
g128
tp698
a(I0
g126
tp699
a(I1
g128
tp700
a(I2
g128
tp701
a(I3
g186
tp702
a(I0
g184
tp703
a(I1
g128
tp704
a(I2
g184
tp705
a(I3
g186
tp706
a(I0
g184
tp707
a(I1
g186
tp708
a(I2
g184
tp709
a(I3
g184
tp710
a(I0
g184
tp711
a(I1
g186
tp712
a(I2
g128
tp713
a(I3
g184
tp714
a(I0
g128
tp715
a(I1
g335
tp716
a(I2
g184
tp717
a(I3
g128
tp718
a(I0
g186
tp719
a(I1
g184
tp720
a(I2
g184
tp721
a(I3
g128
tp722
a(I0
g128
tp723
a(I1
g184
tp724
a(I2
g128
tp725
a(I3
g335
tp726
a(I0
g128
tp727
a(I1
g186
tp728
a(I2
g184
tp729
a(I3
g126
tp730
a(I0
g186
tp731
a(I1
g186
tp732
a(I2
g126
tp733
a(I3
g128
tp734
a(I0
g186
tp735
a(I1
g335
tp736
a(I2
g186
tp737
a(I3
g128
tp738
a(I0
g184
tp739
a(I1
g128
tp740
a(I2
g126
tp741
a(I3
g128
tp742
a(I0
g184
tp743
a(I1
g128
tp744
a(I2
g184
tp745
a(I3
g128
tp746
a(I0
g184
tp747
a(I1
g128
tp748
a(I2
g128
tp749
a(I3
g128
tp750
a(I0
g128
tp751
a(I1
g128
tp752
a(I2
g186
tp753
a(I3
g128
tp754
a(I0
g184
tp755
a(I1
g128
tp756
a(I2
g186
tp757
a(I3
g128
tp758
a(I0
g184
tp759
a(I1
g128
tp760
a(I2
g186
tp761
a(I3
g128
tp762
a(I0
g128
tp763
a(I1
g128
tp764
a(I2
g128
tp765
a(I3
g128
tp766
a(I0
g128
tp767
a(I1
g128
tp768
a(I2
g128
tp769
a(I3
g128
tp770
a(I0
g128
tp771
a(I1
g128
tp772
a(I2
g128
tp773
a(I3
g128
tp774
a(I0
g128
tp775
a(I1
g128
tp776
a(I2
g128
tp777
a(I3
g128
tp778
a(I0
g186
tp779
a(I1
g128
tp780
a(I2
g184
tp781
a(I3
g128
tp782
a(I0
g186
tp783
a(I1
g128
tp784
a(I2
g128
tp785
a(I3
g128
tp786
a(I0
g128
tp787
a(I1
g128
tp788
a(I2
g128
tp789
a(I3
g128
tp790
a(I0
g128
tp791
a(I1
g128
tp792
a(I2
g128
tp793
a(I3
g186
tp794
a(I0
g128
tp795
a(I1
g128
tp796
a(I2
g128
tp797
a(I3
g186
tp798
a(I0
g126
tp799
a(I1
g186
tp800
a(I2
g186
tp801
a(I3
g126
tp802
a(I0
g126
tp803
a(I1
g186
tp804
a(I2
g126
tp805
a(I3
g126
tp806
a(I0
g126
tp807
a(I1
g126
tp808
a(I2
g126
tp809
a(I3
g126
tp810
a(I0
g126
tp811
a(I1
g126
tp812
a(I2
g186
tp813
a(I3
g186
tp814
a(I0
g186
tp815
a(I1
g126
tp816
a(I2
g186
tp817
a(I3
g186
tp818
a(I0
g186
tp819
a(I1
g186
tp820
a(I2
g126
tp821
a(I3
g126
tp822
a(I0
g186
tp823
a(I1
g186
tp824
a(I2
g126
tp825
a(I3
g186
tp826
a(I0
g128
tp827
a(I1
g126
tp828
a(I2
g126
tp829
a(I3
g186
tp830
a(I0
g186
tp831
a(I1
g186
tp832
a(I2
g184
tp833
a(I3
g186
tp834
a(I0
g128
tp835
a(I1
g186
tp836
a(I2
g184
tp837
a(I3
g128
tp838
a(I0
g128
tp839
a(I1
g126
tp840
a(I2
g126
tp841
a(I3
g186
tp842
a(I0
g186
tp843
a(I1
g186
tp844
a(I2
g126
tp845
a(I3
g128
tp846
a(I0
g186
tp847
a(I1
g186
tp848
a(I2
g126
tp849
a(I3
g128
tp850
a(I0
g128
tp851
a(I1
g186
tp852
a(I2
g184
tp853
a(I3
g186
tp854
a(I0
g126
tp855
a(I1
g186
tp856
a(I2
g184
tp857
a(I3
g186
tp858
a(I0
g126
tp859
a(I1
g128
tp860
a(I2
g128
tp861
a(I3
g184
tp862
a(I0
g126
tp863
a(I1
g186
tp864
a(I2
g184
tp865
a(I3
g184
tp866
a(I0
g126
tp867
a(I1
g186
tp868
a(I2
g126
tp869
a(I3
g126
tp870
a(I0
g126
tp871
a(I1
g126
tp872
a(I2
g126
tp873
a(I3
g126
tp874
a(I0
g126
tp875
a(I1
g126
tp876
a(I2
g186
tp877
a(I3
g186
tp878
a(I0
g126
tp879
a(I1
g126
tp880
a(I2
g128
tp881
a(I3
g186
tp882
a(I0
g126
tp883
a(I1
g126
tp884
a(I2
g128
tp885
a(I3
g126
tp886
a(I0
g126
tp887
a(I1
g126
tp888
a(I2
g184
tp889
a(I3
g186
tp890
a(I0
g126
tp891
a(I1
g186
tp892
a(I2
g126
tp893
a(I3
g186
tp894
a(I0
g126
tp895
a(I1
g186
tp896
a(I2
g126
tp897
a(I3
g126
tp898
a(I0
g126
tp899
a(I1
g186
tp900
a(I2
g186
tp901
a(I3
g126
tp902
a(I0
g126
tp903
a(I1
g126
tp904
a(I2
g128
tp905
a(I3
g126
tp906
a(I0
g126
tp907
a(I1
g186
tp908
a(I2
g184
tp909
a(I3
g126
tp910
a(I0
g126
tp911
a(I1
g186
tp912
a(I2
g128
tp913
a(I3
g126
tp914
a(I0
g184
tp915
a(I1
g126
tp916
a(I2
g186
tp917
a(I3
g186
tp918
a(I0
g184
tp919
a(I1
g186
tp920
a(I2
g128
tp921
a(I3
g186
tp922
a(I0
g128
tp923
a(I1
g186
tp924
a(I2
g184
tp925
a(I3
g126
tp926
a(I0
g128
tp927
a(I1
g186
tp928
a(I2
g126
tp929
a(I3
g186
tp930
a(I0
g128
tp931
a(I1
g186
tp932
a(I2
g184
tp933
a(I3
g186
tp934
a(I0
g184
tp935
a(I1
g126
tp936
a(I2
g184
tp937
a(I3
g126
tp938
a(I0
g184
tp939
a(I1
g335
tp940
a(I2
g126
tp941
a(I3
g186
tp942
a(I0
g128
tp943
a(I1
g335
tp944
a(I2
g184
tp945
a(I3
g186
tp946
a(I0
g184
tp947
a(I1
g128
tp948
a(I2
g184
tp949
a(I3
g184
tp950
a(I0
g184
tp951
a(I1
g128
tp952
a(I2
g184
tp953
a(I3
g184
tp954
a(I0
g184
tp955
a(I1
g128
tp956
a(I2
g184
tp957
a(I3
g126
tp958
a(I0
g128
tp959
a(I1
g128
tp960
a(I2
g184
tp961
a(I3
g126
tp962
a(I0
g184
tp963
a(I1
g128
tp964
a(I2
g184
tp965
a(I3
g186
tp966
a(I0
g184
tp967
a(I1
g128
tp968
a(I2
g126
tp969
a(I3
g335
tp970
a(I0
g184
tp971
a(I1
g128
tp972
a(I2
g186
tp973
a(I3
g128
tp974
a(I0
g128
tp975
a(I1
g128
tp976
a(I2
g126
tp977
a(I3
g128
tp978
a(I0
g128
tp979
a(I1
g128
tp980
a(I2
g184
tp981
a(I3
g128
tp982
a(I0
g128
tp983
a(I1
g128
tp984
a(I2
g126
tp985
a(I3
g128
tp986
a(I0
g128
tp987
a(I1
g128
tp988
a(I2
g126
tp989
a(I3
g128
tp990
a(I0
g128
tp991
a(I1
g128
tp992
a(I2
g186
tp993
a(I3
g128
tp994
a(I0
g128
tp995
a(I1
g128
tp996
a(I2
g184
tp997
a(I3
g128
tp998
a(I0
g128
tp999
a(I1
g128
tp1000
a(I2
g128
tp1001
a(I3
g128
tp1002
a(I0
g128
tp1003
a(I1
g128
tp1004
a(I2
g128
tp1005
a(I3
g128
tp1006
a(I0
g128
tp1007
a(I1
g186
tp1008
a(I2
g186
tp1009
a(I3
g128
tp1010
a(I0
g184
tp1011
a(I1
g186
tp1012
a(I2
g128
tp1013
a(I3
g128
tp1014
a(I0
g184
tp1015
a(I1
g126
tp1016
a(I2
g184
tp1017
a(I3
g128
tp1018
a(I0
g184
tp1019
a(I1
g126
tp1020
a(I2
g126
tp1021
a(I3
g128
tp1022
a(I0
g184
tp1023
a(I1
g126
tp1024
a(I2
g126
tp1025
a(I3
g128
tp1026
a(I0
g184
tp1027
a(I1
g186
tp1028
a(I2
g126
tp1029
a(I3
g128
tp1030
a(I0
g128
tp1031
a(I1
g186
tp1032
a(I2
g186
tp1033
a(I3
g128
tp1034
a(I0
g184
tp1035
a(I1
g126
tp1036
a(I2
g184
tp1037
a(I3
g186
tp1038
a(I0
g184
tp1039
asS'length'
p1040
I1200
sS'agents'
p1041
(lp1042
(igame
Agent
p1043
(dp1044
S'index'
p1045
I0
sba(igame
Agent
p1046
(dp1047
g1045
I0
sba(igame
Agent
p1048
(dp1049
g1045
I0
sba(igame
Agent
p1050
(dp1051
g1045
I0
sbasS'redTeamName'
p1052
S'SPICYKEBAB'
p1053
s.