(dp1
S'layout'
p2
(ilayout
Layout
p3
(dp4
S'capsules'
p5
(lp6
(I6
I5
tp7
a(I25
I10
tp8
asS'numGhosts'
p9
I4
sS'food'
p10
(igame
Grid
p11
(dp12
S'CELLS_PER_INT'
p13
I30
sS'width'
p14
I32
sS'data'
p15
(lp16
(lp17
I00
aI00
aI00
aI00
aI00
aI00
aI00
aI00
aI00
aI00
aI00
aI00
aI00
aI00
aI00
aI00
aa(lp18
I00
aI00
aI00
aI00
aI00
aI00
aI00
aI00
aI00
aI00
aI00
aI00
aI00
aI00
aI00
aI00
aa(lp19
I00
aI00
aI00
aI00
aI00
aI00
aI00
aI00
aI00
aI00
aI00
aI00
aI00
aI00
aI00
aI00
aa(lp20
I00
aI01
aI01
aI00
aI00
aI00
aI00
aI00
aI01
aI00
aI00
aI00
aI00
aI00
aI00
aI00
aa(lp21
I00
aI00
aI00
aI00
aI00
aI00
aI00
aI00
aI00
aI00
aI00
aI00
aI00
aI00
aI00
aI00
aa(lp22
I00
aI01
aI00
aI00
aI00
aI00
aI00
aI00
aI00
aI00
aI00
aI00
aI01
aI00
aI01
aI00
aa(lp23
I00
aI00
aI00
aI00
aI00
aI00
aI00
aI00
aI00
aI00
aI00
aI00
aI00
aI00
aI00
aI00
aa(lp24
I00
aI00
aI00
aI01
aI00
aI00
aI00
aI00
aI01
aI01
aI00
aI00
aI00
aI00
aI00
aI00
aa(lp25
I00
aI00
aI00
aI01
aI00
aI00
aI00
aI00
aI00
aI01
aI00
aI00
aI00
aI00
aI01
aI00
aa(lp26
I00
aI00
aI00
aI00
aI00
aI01
aI00
aI00
aI00
aI00
aI00
aI01
aI00
aI00
aI00
aI00
aa(lp27
I00
aI00
aI00
aI01
aI00
aI00
aI00
aI01
aI00
aI01
aI00
aI01
aI00
aI00
aI01
aI00
aa(lp28
I00
aI00
aI00
aI00
aI00
aI00
aI00
aI00
aI00
aI00
aI00
aI00
aI00
aI00
aI00
aI00
aa(lp29
I00
aI00
aI00
aI00
aI00
aI00
aI00
aI00
aI00
aI00
aI00
aI00
aI00
aI00
aI00
aI00
aa(lp30
I00
aI00
aI00
aI00
aI00
aI00
aI00
aI00
aI00
aI00
aI00
aI00
aI00
aI00
aI00
aI00
aa(lp31
I00
aI00
aI00
aI00
aI00
aI00
aI00
aI00
aI00
aI01
aI00
aI00
aI00
aI00
aI00
aI00
aa(lp32
I00
aI00
aI00
aI00
aI00
aI00
aI00
aI00
aI00
aI00
aI00
aI00
aI00
aI00
aI00
aI00
aa(lp33
I00
aI00
aI00
aI00
aI00
aI00
aI00
aI00
aI00
aI00
aI00
aI00
aI00
aI00
aI00
aI00
aa(lp34
I00
aI00
aI00
aI00
aI00
aI00
aI01
aI00
aI00
aI00
aI00
aI00
aI00
aI00
aI00
aI00
aa(lp35
I00
aI00
aI00
aI00
aI00
aI00
aI00
aI00
aI00
aI00
aI00
aI00
aI00
aI00
aI00
aI00
aa(lp36
I00
aI00
aI00
aI00
aI00
aI00
aI00
aI00
aI00
aI00
aI00
aI00
aI00
aI00
aI00
aI00
aa(lp37
I00
aI00
aI00
aI00
aI00
aI00
aI00
aI00
aI00
aI00
aI00
aI00
aI00
aI00
aI00
aI00
aa(lp38
I00
aI01
aI00
aI00
aI01
aI00
aI01
aI00
aI01
aI00
aI00
aI00
aI01
aI00
aI00
aI00
aa(lp39
I00
aI00
aI00
aI00
aI01
aI00
aI00
aI00
aI00
aI00
aI01
aI00
aI00
aI00
aI00
aI00
aa(lp40
I00
aI01
aI00
aI00
aI00
aI00
aI01
aI00
aI00
aI00
aI00
aI00
aI01
aI00
aI00
aI00
aa(lp41
I00
aI00
aI00
aI00
aI00
aI00
aI01
aI01
aI00
aI00
aI00
aI00
aI01
aI00
aI00
aI00
aa(lp42
I00
aI00
aI00
aI00
aI00
aI00
aI00
aI00
aI00
aI00
aI00
aI00
aI00
aI00
aI00
aI00
aa(lp43
I00
aI01
aI00
aI01
aI00
aI00
aI00
aI00
aI00
aI00
aI00
aI00
aI00
aI00
aI01
aI00
aa(lp44
I00
aI00
aI00
aI00
aI00
aI00
aI00
aI00
aI00
aI00
aI00
aI00
aI00
aI00
aI00
aI00
aa(lp45
I00
aI00
aI00
aI00
aI00
aI00
aI00
aI01
aI00
aI00
aI00
aI00
aI00
aI01
aI01
aI00
aa(lp46
I00
aI00
aI00
aI00
aI00
aI00
aI00
aI00
aI00
aI00
aI00
aI00
aI00
aI00
aI00
aI00
aa(lp47
I00
aI00
aI00
aI00
aI00
aI00
aI00
aI00
aI00
aI00
aI00
aI00
aI00
aI00
aI00
aI00
aa(lp48
I00
aI00
aI00
aI00
aI00
aI00
aI00
aI00
aI00
aI00
aI00
aI00
aI00
aI00
aI00
aI00
aasS'height'
p49
I16
sbsS'agentPositions'
p50
(lp51
(I00
(I1
I2
tp52
tp53
a(I00
(I30
I13
tp54
tp55
a(I00
(I1
I1
tp56
tp57
a(I00
(I30
I14
tp58
tp59
asg49
I16
sg14
I32
sS'walls'
p60
(igame
Grid
p61
(dp62
g13
I30
sg14
I32
sg15
(lp63
(lp64
I01
aI01
aI01
aI01
aI01
aI01
aI01
aI01
aI01
aI01
aI01
aI01
aI01
aI01
aI01
aI01
aa(lp65
I01
aI00
aI00
aI00
aI00
aI00
aI00
aI00
aI00
aI00
aI00
aI00
aI00
aI00
aI00
aI01
aa(lp66
I01
aI01
aI01
aI01
aI01
aI01
aI01
aI01
aI01
aI01
aI01
aI01
aI01
aI01
aI00
aI01
aa(lp67
I01
aI00
aI00
aI00
aI00
aI00
aI00
aI01
aI00
aI01
aI00
aI00
aI00
aI00
aI00
aI01
aa(lp68
I01
aI01
aI01
aI01
aI01
aI01
aI00
aI00
aI00
aI00
aI00
aI01
aI01
aI01
aI01
aI01
aa(lp69
I01
aI00
aI00
aI00
aI00
aI00
aI00
aI00
aI01
aI01
aI00
aI01
aI00
aI01
aI00
aI01
aa(lp70
I01
aI01
aI00
aI01
aI01
aI00
aI01
aI01
aI01
aI00
aI00
aI00
aI00
aI00
aI00
aI01
aa(lp71
I01
aI00
aI00
aI00
aI01
aI00
aI00
aI01
aI00
aI00
aI01
aI01
aI01
aI00
aI01
aI01
aa(lp72
I01
aI00
aI01
aI00
aI01
aI01
aI00
aI01
aI01
aI00
aI01
aI00
aI00
aI00
aI00
aI01
aa(lp73
I01
aI00
aI01
aI01
aI01
aI00
aI00
aI01
aI01
aI01
aI01
aI00
aI01
aI00
aI01
aI01
aa(lp74
I01
aI00
aI01
aI00
aI01
aI01
aI00
aI00
aI01
aI00
aI01
aI00
aI01
aI00
aI00
aI01
aa(lp75
I01
aI00
aI00
aI00
aI00
aI01
aI00
aI01
aI01
aI00
aI01
aI01
aI01
aI00
aI01
aI01
aa(lp76
I01
aI01
aI00
aI01
aI00
aI01
aI00
aI00
aI00
aI00
aI00
aI00
aI00
aI00
aI00
aI01
aa(lp77
I01
aI00
aI00
aI01
aI00
aI00
aI00
aI00
aI00
aI01
aI01
aI01
aI00
aI01
aI00
aI01
aa(lp78
I01
aI00
aI01
aI01
aI01
aI00
aI01
aI00
aI00
aI00
aI01
aI00
aI00
aI01
aI00
aI01
aa(lp79
I01
aI00
aI00
aI01
aI00
aI00
aI01
aI00
aI00
aI01
aI01
aI00
aI00
aI00
aI00
aI01
aa(lp80
I01
aI00
aI00
aI00
aI00
aI01
aI01
aI00
aI00
aI01
aI00
aI00
aI01
aI00
aI00
aI01
aa(lp81
I01
aI00
aI01
aI00
aI00
aI01
aI00
aI00
aI00
aI01
aI00
aI01
aI01
aI01
aI00
aI01
aa(lp82
I01
aI00
aI01
aI00
aI01
aI01
aI01
aI00
aI00
aI00
aI00
aI00
aI01
aI00
aI00
aI01
aa(lp83
I01
aI00
aI00
aI00
aI00
aI00
aI00
aI00
aI00
aI00
aI01
aI00
aI01
aI00
aI01
aI01
aa(lp84
I01
aI01
aI00
aI01
aI01
aI01
aI00
aI01
aI01
aI00
aI01
aI00
aI00
aI00
aI00
aI01
aa(lp85
I01
aI00
aI00
aI01
aI00
aI01
aI00
aI01
aI00
aI00
aI01
aI01
aI00
aI01
aI00
aI01
aa(lp86
I01
aI01
aI00
aI01
aI00
aI01
aI01
aI01
aI01
aI00
aI00
aI01
aI01
aI01
aI00
aI01
aa(lp87
I01
aI00
aI00
aI00
aI00
aI01
aI00
aI01
aI01
aI00
aI01
aI01
aI00
aI01
aI00
aI01
aa(lp88
I01
aI01
aI00
aI01
aI01
aI01
aI00
aI00
aI01
aI00
aI00
aI01
aI00
aI00
aI00
aI01
aa(lp89
I01
aI00
aI00
aI00
aI00
aI00
aI00
aI01
aI01
aI01
aI00
aI01
aI01
aI00
aI01
aI01
aa(lp90
I01
aI00
aI01
aI00
aI01
aI00
aI01
aI01
aI00
aI00
aI00
aI00
aI00
aI00
aI00
aI01
aa(lp91
I01
aI01
aI01
aI01
aI01
aI00
aI00
aI00
aI00
aI00
aI01
aI01
aI01
aI01
aI01
aI01
aa(lp92
I01
aI00
aI00
aI00
aI00
aI00
aI01
aI00
aI01
aI00
aI00
aI00
aI00
aI00
aI00
aI01
aa(lp93
I01
aI00
aI01
aI01
aI01
aI01
aI01
aI01
aI01
aI01
aI01
aI01
aI01
aI01
aI01
aI01
aa(lp94
I01
aI00
aI00
aI00
aI00
aI00
aI00
aI00
aI00
aI00
aI00
aI00
aI00
aI00
aI00
aI01
aa(lp95
I01
aI01
aI01
aI01
aI01
aI01
aI01
aI01
aI01
aI01
aI01
aI01
aI01
aI01
aI01
aI01
aasg49
I16
sbsS'layoutText'
p96
(lp97
S'%%%%%%%%%%%%%%%%%%%%%%%%%%%%%%%%'
p98
aS'%   %. %.%.%       %     %.%.%4%'
p99
aS'% % %%       %%  %   %%%   %.%2%'
p100
aS'% % %. % %%%    %%%% .%..% % % %'
p101
aS'% % %% % ..% %   %   %%%%% % % %'
p102
aS'% %    %%%%% %%%   %%%.% o % % %'
p103
aS'% %% % ..%.  %.%%%       %   % %'
p104
aS'% %. %%.%%%%        %.%%%%  %% %'
p105
aS'% %%  %%%%.%        %%%%.%% .% %'
p106
aS'% %   %       %%%.%  .%.. % %% %'
p107
aS'% % % o %.%%%   %%% %%%%%    % %'
p108
aS'% % % %%%%%   %   % %.. % %% % %'
p109
aS'% % % %..%. %%%%    %%% % .% % %'
p110
aS'%1%.%   %%%   %  %%       %% % %'
p111
aS'%3%.%.%     %       %.%.% .%   %'
p112
aS'%%%%%%%%%%%%%%%%%%%%%%%%%%%%%%%%'
p113
asbsS'blueTeamName'
p114
S'HAL9001'
p115
sS'actions'
p116
(lp117
(I0
S'North'
p118
tp119
a(I1
S'South'
p120
tp121
a(I2
g118
tp122
a(I3
g120
tp123
a(I0
g118
tp124
a(I1
g120
tp125
a(I2
g118
tp126
a(I3
g120
tp127
a(I0
g118
tp128
a(I1
g120
tp129
a(I2
g118
tp130
a(I3
g120
tp131
a(I0
g118
tp132
a(I1
g120
tp133
a(I2
g118
tp134
a(I3
g120
tp135
a(I0
g118
tp136
a(I1
g120
tp137
a(I2
g118
tp138
a(I3
g120
tp139
a(I0
g118
tp140
a(I1
g120
tp141
a(I2
g118
tp142
a(I3
g120
tp143
a(I0
g118
tp144
a(I1
g120
tp145
a(I2
g118
tp146
a(I3
g120
tp147
a(I0
g118
tp148
a(I1
g120
tp149
a(I2
g118
tp150
a(I3
g120
tp151
a(I0
g118
tp152
a(I1
g120
tp153
a(I2
g118
tp154
a(I3
g120
tp155
a(I0
g118
tp156
a(I1
g120
tp157
a(I2
g118
tp158
a(I3
g120
tp159
a(I0
g118
tp160
a(I1
g120
tp161
a(I2
g118
tp162
a(I3
g120
tp163
a(I0
g118
tp164
a(I1
g120
tp165
a(I2
g118
tp166
a(I3
g120
tp167
a(I0
S'East'
p168
tp169
a(I1
S'West'
p170
tp171
a(I2
g118
tp172
a(I3
g120
tp173
a(I0
g168
tp174
a(I1
g170
tp175
a(I2
g168
tp176
a(I3
g170
tp177
a(I0
g120
tp178
a(I1
g118
tp179
a(I2
g168
tp180
a(I3
g170
tp181
a(I0
g120
tp182
a(I1
g118
tp183
a(I2
g120
tp184
a(I3
g118
tp185
a(I0
g120
tp186
a(I1
g118
tp187
a(I2
g120
tp188
a(I3
g118
tp189
a(I0
g120
tp190
a(I1
g118
tp191
a(I2
g120
tp192
a(I3
g118
tp193
a(I0
g168
tp194
a(I1
g170
tp195
a(I2
g120
tp196
a(I3
g118
tp197
a(I0
g120
tp198
a(I1
g118
tp199
a(I2
g168
tp200
a(I3
g170
tp201
a(I0
g120
tp202
a(I1
g118
tp203
a(I2
g120
tp204
a(I3
g170
tp205
a(I0
g120
tp206
a(I1
g118
tp207
a(I2
g120
tp208
a(I3
g170
tp209
a(I0
g168
tp210
a(I1
g170
tp211
a(I2
g170
tp212
a(I3
g120
tp213
a(I0
g120
tp214
a(I1
g118
tp215
a(I2
g168
tp216
a(I3
g120
tp217
a(I0
g120
tp218
a(I1
g118
tp219
a(I2
g120
tp220
a(I3
g120
tp221
a(I0
g168
tp222
a(I1
g170
tp223
a(I2
g168
tp224
a(I3
g170
tp225
a(I0
g168
tp226
a(I1
g170
tp227
a(I2
g120
tp228
a(I3
g170
tp229
a(I0
g118
tp230
a(I1
g120
tp231
a(I2
g120
tp232
a(I3
g170
tp233
a(I0
g168
tp234
a(I1
g170
tp235
a(I2
g168
tp236
a(I3
g170
tp237
a(I0
g168
tp238
a(I1
g170
tp239
a(I2
g168
tp240
a(I3
g170
tp241
a(I0
g168
tp242
a(I1
g170
tp243
a(I2
g118
tp244
a(I3
g170
tp245
a(I0
g168
tp246
a(I1
g170
tp247
a(I2
g168
tp248
a(I3
g120
tp249
a(I0
g168
tp250
a(I1
g170
tp251
a(I2
g168
tp252
a(I3
g170
tp253
a(I0
g168
tp254
a(I1
g120
tp255
a(I2
g168
tp256
a(I3
g170
tp257
a(I0
g118
tp258
a(I1
g170
tp259
a(I2
g118
tp260
a(I3
g170
tp261
a(I0
g168
tp262
a(I1
g170
tp263
a(I2
g120
tp264
a(I3
g170
tp265
a(I0
g168
tp266
a(I1
S'Stop'
p267
tp268
a(I2
g170
tp269
a(I3
g170
tp270
a(I0
g168
tp271
a(I1
g170
tp272
a(I2
g120
tp273
a(I3
g170
tp274
a(I0
g168
tp275
a(I1
g120
tp276
a(I2
g118
tp277
a(I3
g118
tp278
a(I0
g120
tp279
a(I1
g168
tp280
a(I2
g170
tp281
a(I3
g170
tp282
a(I0
g267
tp283
a(I1
g120
tp284
a(I2
g170
tp285
a(I3
g170
tp286
a(I0
g118
tp287
a(I1
g118
tp288
a(I2
g120
tp289
a(I3
g118
tp290
a(I0
g118
tp291
a(I1
g118
tp292
a(I2
g170
tp293
a(I3
g170
tp294
a(I0
g118
tp295
a(I1
g170
tp296
a(I2
g170
tp297
a(I3
g168
tp298
a(I0
g118
tp299
a(I1
g170
tp300
a(I2
g120
tp301
a(I3
g120
tp302
a(I0
g118
tp303
a(I1
g170
tp304
a(I2
g120
tp305
a(I3
g120
tp306
a(I0
g118
tp307
a(I1
g118
tp308
a(I2
g120
tp309
a(I3
g170
tp310
a(I0
g118
tp311
a(I1
g120
tp312
a(I2
g120
tp313
a(I3
g170
tp314
a(I0
g118
tp315
a(I1
g170
tp316
a(I2
g118
tp317
a(I3
g170
tp318
a(I0
g118
tp319
a(I1
g170
tp320
a(I2
g168
tp321
a(I3
g267
tp322
a(I0
g118
tp323
a(I1
g118
tp324
a(I2
g168
tp325
a(I3
g168
tp326
a(I0
g118
tp327
a(I1
g170
tp328
a(I2
g120
tp329
a(I3
g168
tp330
a(I0
g118
tp331
a(I1
g170
tp332
a(I2
g168
tp333
a(I3
g168
tp334
a(I0
g168
tp335
a(I1
g168
tp336
a(I2
g168
tp337
a(I3
g118
tp338
a(I0
g168
tp339
a(I1
g168
tp340
a(I2
g168
tp341
a(I3
g118
tp342
a(I0
g120
tp343
a(I1
g118
tp344
a(I2
g168
tp345
a(I3
g118
tp346
a(I0
g120
tp347
a(I1
g118
tp348
a(I2
g118
tp349
a(I3
g168
tp350
a(I0
g120
tp351
a(I1
g118
tp352
a(I2
g118
tp353
a(I3
g168
tp354
a(I0
g120
tp355
a(I1
g118
tp356
a(I2
g118
tp357
a(I3
g118
tp358
a(I0
g168
tp359
a(I1
g170
tp360
a(I2
g168
tp361
a(I3
g118
tp362
a(I0
g168
tp363
a(I1
g170
tp364
a(I2
g168
tp365
a(I3
g170
tp366
a(I0
g168
tp367
a(I1
g118
tp368
a(I2
g118
tp369
a(I3
g170
tp370
a(I0
g118
tp371
a(I1
g120
tp372
a(I2
g118
tp373
a(I3
g170
tp374
a(I0
g118
tp375
a(I1
g170
tp376
a(I2
g170
tp377
a(I3
g118
tp378
a(I0
g118
tp379
a(I1
g267
tp380
a(I2
g170
tp381
a(I3
g267
tp382
a(I0
g168
tp383
a(I1
g168
tp384
a(I2
g170
tp385
a(I3
g120
tp386
a(I0
g168
tp387
a(I1
g118
tp388
a(I2
g168
tp389
a(I3
g120
tp390
a(I0
g168
tp391
a(I1
g267
tp392
a(I2
g168
tp393
a(I3
g120
tp394
a(I0
g168
tp395
a(I1
g120
tp396
a(I2
g168
tp397
a(I3
g120
tp398
a(I0
g168
tp399
a(I1
g120
tp400
a(I2
g120
tp401
a(I3
g120
tp402
a(I0
g168
tp403
a(I1
g120
tp404
a(I2
g168
tp405
a(I3
g120
tp406
a(I0
g118
tp407
a(I1
g120
tp408
a(I2
g168
tp409
a(I3
g120
tp410
a(I0
g168
tp411
a(I1
g120
tp412
a(I2
g120
tp413
a(I3
g120
tp414
a(I0
g168
tp415
a(I1
g120
tp416
a(I2
g118
tp417
a(I3
g120
tp418
a(I0
g168
tp419
a(I1
g120
tp420
a(I2
g170
tp421
a(I3
g120
tp422
a(I0
g168
tp423
a(I1
g120
tp424
a(I2
g168
tp425
a(I3
g120
tp426
a(I0
g168
tp427
a(I1
g120
tp428
a(I2
g120
tp429
a(I3
g120
tp430
a(I0
g168
tp431
a(I1
g120
tp432
a(I2
g168
tp433
a(I3
g120
tp434
a(I0
g120
tp435
a(I1
g120
tp436
a(I2
g120
tp437
a(I3
g120
tp438
a(I0
g168
tp439
a(I1
g120
tp440
a(I2
g168
tp441
a(I3
g170
tp442
a(I0
g168
tp443
a(I1
g120
tp444
a(I2
g168
tp445
a(I3
g170
tp446
a(I0
g120
tp447
a(I1
g170
tp448
a(I2
g168
tp449
a(I3
g118
tp450
a(I0
g168
tp451
a(I1
g170
tp452
a(I2
g120
tp453
a(I3
g118
tp454
a(I0
g170
tp455
a(I1
g118
tp456
a(I2
g168
tp457
a(I3
g118
tp458
a(I0
g118
tp459
a(I1
g118
tp460
a(I2
g168
tp461
a(I3
g118
tp462
a(I0
g118
tp463
a(I1
g118
tp464
a(I2
g120
tp465
a(I3
g170
tp466
a(I0
g168
tp467
a(I1
g118
tp468
a(I2
g118
tp469
a(I3
g170
tp470
a(I0
g168
tp471
a(I1
g170
tp472
a(I2
g168
tp473
a(I3
g170
tp474
a(I0
g168
tp475
a(I1
g118
tp476
a(I2
g168
tp477
a(I3
g120
tp478
a(I0
g168
tp479
a(I1
g120
tp480
a(I2
g120
tp481
a(I3
g120
tp482
a(I0
g120
tp483
a(I1
g170
tp484
a(I2
g118
tp485
a(I3
g120
tp486
a(I0
g120
tp487
a(I1
g170
tp488
a(I2
g118
tp489
a(I3
g170
tp490
a(I0
g170
tp491
a(I1
g120
tp492
a(I2
g118
tp493
a(I3
g170
tp494
a(I0
g168
tp495
a(I1
g120
tp496
a(I2
g170
tp497
a(I3
g118
tp498
a(I0
g118
tp499
a(I1
g120
tp500
a(I2
g170
tp501
a(I3
g118
tp502
a(I0
g168
tp503
a(I1
g170
tp504
a(I2
g168
tp505
a(I3
g170
tp506
a(I0
g168
tp507
a(I1
g170
tp508
a(I2
g118
tp509
a(I3
g168
tp510
a(I0
g118
tp511
a(I1
g170
tp512
a(I2
g118
tp513
a(I3
g120
tp514
a(I0
g120
tp515
a(I1
g170
tp516
a(I2
g118
tp517
a(I3
g120
tp518
a(I0
g120
tp519
a(I1
g170
tp520
a(I2
g118
tp521
a(I3
g170
tp522
a(I0
g120
tp523
a(I1
g170
tp524
a(I2
g118
tp525
a(I3
g170
tp526
a(I0
g120
tp527
a(I1
g118
tp528
a(I2
g118
tp529
a(I3
g170
tp530
a(I0
g120
tp531
a(I1
g170
tp532
a(I2
g118
tp533
a(I3
g170
tp534
a(I0
g120
tp535
a(I1
g170
tp536
a(I2
g118
tp537
a(I3
g118
tp538
a(I0
g168
tp539
a(I1
g118
tp540
a(I2
g118
tp541
a(I3
g170
tp542
a(I0
g120
tp543
a(I1
g170
tp544
a(I2
g118
tp545
a(I3
g170
tp546
a(I0
g168
tp547
a(I1
g170
tp548
a(I2
g118
tp549
a(I3
g118
tp550
a(I0
g170
tp551
a(I1
g118
tp552
a(I2
g118
tp553
a(I3
g170
tp554
a(I0
g120
tp555
a(I1
g170
tp556
a(I2
g118
tp557
a(I3
g170
tp558
a(I0
g120
tp559
a(I1
g170
tp560
a(I2
g168
tp561
a(I3
g118
tp562
a(I0
g170
tp563
a(I1
g118
tp564
a(I2
g168
tp565
a(I3
g170
tp566
a(I0
g170
tp567
a(I1
g118
tp568
a(I2
g120
tp569
a(I3
g170
tp570
a(I0
g118
tp571
a(I1
g170
tp572
a(I2
g120
tp573
a(I3
g118
tp574
a(I0
g170
tp575
a(I1
g118
tp576
a(I2
g120
tp577
a(I3
g170
tp578
a(I0
g170
tp579
a(I1
g118
tp580
a(I2
g120
tp581
a(I3
g170
tp582
a(I0
g168
tp583
a(I1
g118
tp584
a(I2
g168
tp585
a(I3
g170
tp586
a(I0
g118
tp587
a(I1
g118
tp588
a(I2
g168
tp589
a(I3
g170
tp590
a(I0
g120
tp591
a(I1
g118
tp592
a(I2
g168
tp593
a(I3
g120
tp594
a(I0
g168
tp595
a(I1
g118
tp596
a(I2
g118
tp597
a(I3
g118
tp598
a(I0
g120
tp599
a(I1
g170
tp600
a(I2
g118
tp601
a(I3
g170
tp602
a(I0
g120
tp603
a(I1
g170
tp604
a(I2
g118
tp605
a(I3
g170
tp606
a(I0
g120
tp607
a(I1
g170
tp608
a(I2
g168
tp609
a(I3
g120
tp610
a(I0
g168
tp611
a(I1
g168
tp612
a(I2
g168
tp613
a(I3
g170
tp614
a(I0
g170
tp615
a(I1
g170
tp616
a(I2
g120
tp617
a(I3
g170
tp618
a(I0
g120
tp619
a(I1
g170
tp620
a(I2
g120
tp621
a(I3
g120
tp622
a(I0
g120
tp623
a(I1
g118
tp624
a(I2
g118
tp625
a(I3
g120
tp626
a(I0
g168
tp627
a(I1
g120
tp628
a(I2
g120
tp629
a(I3
g120
tp630
a(I0
g170
tp631
a(I1
g120
tp632
a(I2
g168
tp633
a(I3
g120
tp634
a(I0
g118
tp635
a(I1
g120
tp636
a(I2
g168
tp637
a(I3
g118
tp638
a(I0
g170
tp639
a(I1
g168
tp640
a(I2
g267
tp641
a(I3
g168
tp642
a(I0
g170
tp643
a(I1
g168
tp644
a(I2
g118
tp645
a(I3
g168
tp646
a(I0
g170
tp647
a(I1
g170
tp648
a(I2
g118
tp649
a(I3
g118
tp650
a(I0
g170
tp651
a(I1
g170
tp652
a(I2
g118
tp653
a(I3
g168
tp654
a(I0
g170
tp655
a(I1
g118
tp656
a(I2
g118
tp657
a(I3
g170
tp658
a(I0
g170
tp659
a(I1
g118
tp660
a(I2
g118
tp661
a(I3
g120
tp662
a(I0
g118
tp663
a(I1
g170
tp664
a(I2
g118
tp665
a(I3
g170
tp666
a(I0
g118
tp667
a(I1
g170
tp668
a(I2
g118
tp669
a(I3
g170
tp670
a(I0
g118
tp671
a(I1
g120
tp672
a(I2
g118
tp673
a(I3
g118
tp674
a(I0
g118
tp675
a(I1
g170
tp676
a(I2
g118
tp677
a(I3
g118
tp678
a(I0
g168
tp679
a(I1
g168
tp680
a(I2
g118
tp681
a(I3
g118
tp682
a(I0
g168
tp683
a(I1
g118
tp684
a(I2
g118
tp685
a(I3
g118
tp686
a(I0
g170
tp687
a(I1
g118
tp688
a(I2
g118
tp689
a(I3
g170
tp690
a(I0
g170
tp691
a(I1
g170
tp692
a(I2
g118
tp693
a(I3
g118
tp694
a(I0
g118
tp695
a(I1
g168
tp696
a(I2
g168
tp697
a(I3
g118
tp698
a(I0
g118
tp699
a(I1
g120
tp700
a(I2
g168
tp701
a(I3
g170
tp702
a(I0
g118
tp703
a(I1
g120
tp704
a(I2
g120
tp705
a(I3
g168
tp706
a(I0
g168
tp707
a(I1
g120
tp708
a(I2
g120
tp709
a(I3
g120
tp710
a(I0
g168
tp711
a(I1
g120
tp712
a(I2
g120
tp713
a(I3
g120
tp714
a(I0
g120
tp715
a(I1
g120
tp716
a(I2
g120
tp717
a(I3
g170
tp718
a(I0
g118
tp719
a(I1
g168
tp720
a(I2
g168
tp721
a(I3
g120
tp722
a(I0
g168
tp723
a(I1
g168
tp724
a(I2
g168
tp725
a(I3
g120
tp726
a(I0
g118
tp727
asS'length'
p728
I1200
sS'agents'
p729
(lp730
(igame
Agent
p731
(dp732
S'index'
p733
I0
sba(igame
Agent
p734
(dp735
g733
I0
sba(igame
Agent
p736
(dp737
g733
I0
sba(igame
Agent
p738
(dp739
g733
I0
sbasS'redTeamName'
p740
S'XR'
p741
s.